
EJEMPLO1.elf:     file format elf32-littlearm

Sections:
Idx Name          Size      VMA       LMA       File off  Algn
  0 .isr_vector   0000018c  08000000  08000000  00010000  2**0
                  CONTENTS, ALLOC, LOAD, READONLY, DATA
  1 .text         0000163c  0800018c  0800018c  0001018c  2**2
                  CONTENTS, ALLOC, LOAD, READONLY, CODE
  2 .rodata       00000040  080017c8  080017c8  000117c8  2**2
                  CONTENTS, ALLOC, LOAD, READONLY, DATA
  3 .ARM.extab    00000000  08001808  08001808  0002000c  2**0
                  CONTENTS
  4 .ARM          00000000  08001808  08001808  0002000c  2**0
                  CONTENTS
  5 .preinit_array 00000000  08001808  08001808  0002000c  2**0
                  CONTENTS, ALLOC, LOAD, DATA
  6 .init_array   00000004  08001808  08001808  00011808  2**2
                  CONTENTS, ALLOC, LOAD, DATA
  7 .fini_array   00000004  0800180c  0800180c  0001180c  2**2
                  CONTENTS, ALLOC, LOAD, DATA
  8 .data         0000000c  20000000  08001810  00020000  2**2
                  CONTENTS, ALLOC, LOAD, DATA
  9 .bss          00000020  2000000c  0800181c  0002000c  2**2
                  ALLOC
 10 ._user_heap_stack 00000604  2000002c  0800181c  0002002c  2**0
                  ALLOC
 11 .ARM.attributes 00000030  00000000  00000000  0002000c  2**0
                  CONTENTS, READONLY
 12 .debug_info   00005311  00000000  00000000  0002003c  2**0
                  CONTENTS, READONLY, DEBUGGING
 13 .debug_abbrev 00000fb4  00000000  00000000  0002534d  2**0
                  CONTENTS, READONLY, DEBUGGING
 14 .debug_aranges 00000530  00000000  00000000  00026308  2**3
                  CONTENTS, READONLY, DEBUGGING
 15 .debug_ranges 00000498  00000000  00000000  00026838  2**3
                  CONTENTS, READONLY, DEBUGGING
 16 .debug_macro  0001e3c3  00000000  00000000  00026cd0  2**0
                  CONTENTS, READONLY, DEBUGGING
 17 .debug_line   00004a01  00000000  00000000  00045093  2**0
                  CONTENTS, READONLY, DEBUGGING
 18 .debug_str    000b71ac  00000000  00000000  00049a94  2**0
                  CONTENTS, READONLY, DEBUGGING
 19 .comment      0000007b  00000000  00000000  00100c40  2**0
                  CONTENTS, READONLY
 20 .debug_frame  000012c4  00000000  00000000  00100cbc  2**2
                  CONTENTS, READONLY, DEBUGGING

Disassembly of section .text:

0800018c <__do_global_dtors_aux>:
 800018c:	b510      	push	{r4, lr}
 800018e:	4c05      	ldr	r4, [pc, #20]	; (80001a4 <__do_global_dtors_aux+0x18>)
 8000190:	7823      	ldrb	r3, [r4, #0]
 8000192:	b933      	cbnz	r3, 80001a2 <__do_global_dtors_aux+0x16>
 8000194:	4b04      	ldr	r3, [pc, #16]	; (80001a8 <__do_global_dtors_aux+0x1c>)
 8000196:	b113      	cbz	r3, 800019e <__do_global_dtors_aux+0x12>
 8000198:	4804      	ldr	r0, [pc, #16]	; (80001ac <__do_global_dtors_aux+0x20>)
 800019a:	f3af 8000 	nop.w
 800019e:	2301      	movs	r3, #1
 80001a0:	7023      	strb	r3, [r4, #0]
 80001a2:	bd10      	pop	{r4, pc}
 80001a4:	2000000c 	.word	0x2000000c
 80001a8:	00000000 	.word	0x00000000
 80001ac:	080017b0 	.word	0x080017b0

080001b0 <frame_dummy>:
 80001b0:	b508      	push	{r3, lr}
 80001b2:	4b03      	ldr	r3, [pc, #12]	; (80001c0 <frame_dummy+0x10>)
 80001b4:	b11b      	cbz	r3, 80001be <frame_dummy+0xe>
 80001b6:	4903      	ldr	r1, [pc, #12]	; (80001c4 <frame_dummy+0x14>)
 80001b8:	4803      	ldr	r0, [pc, #12]	; (80001c8 <frame_dummy+0x18>)
 80001ba:	f3af 8000 	nop.w
 80001be:	bd08      	pop	{r3, pc}
 80001c0:	00000000 	.word	0x00000000
 80001c4:	20000010 	.word	0x20000010
 80001c8:	080017b0 	.word	0x080017b0

080001cc <main>:
/**
  * @brief  The application entry point.
  * @retval int
  */
int main(void)
{
 80001cc:	b580      	push	{r7, lr}
 80001ce:	af00      	add	r7, sp, #0
  /* USER CODE END 1 */

  /* MCU Configuration--------------------------------------------------------*/

  /* Reset of all peripherals, Initializes the Flash interface and the Systick. */
  HAL_Init();
 80001d0:	f000 f973 	bl	80004ba <HAL_Init>
  /* USER CODE BEGIN Init */

  /* USER CODE END Init */

  /* Configure the system clock */
  SystemClock_Config();
 80001d4:	f000 f824 	bl	8000220 <SystemClock_Config>
  /* USER CODE BEGIN SysInit */

  /* USER CODE END SysInit */

  /* Initialize all configured peripherals */
  MX_GPIO_Init();
 80001d8:	f000 f868 	bl	80002ac <MX_GPIO_Init>
  /* Infinite loop */
  /* USER CODE BEGIN WHILE */
  while (1)
  {
    /* USER CODE END WHILE */
	  HAL_GPIO_WritePin(GPIOB,GPIO_PIN_0|GPIO_PIN_1|GPIO_PIN_3|GPIO_PIN_4
 80001dc:	2201      	movs	r2, #1
 80001de:	21fb      	movs	r1, #251	; 0xfb
 80001e0:	480e      	ldr	r0, [pc, #56]	; (800021c <main+0x50>)
 80001e2:	f000 fc51 	bl	8000a88 <HAL_GPIO_WritePin>
	  	                |GPIO_PIN_5|GPIO_PIN_6|GPIO_PIN_7, 1);
	  	  HAL_GPIO_WritePin(GPIOA, GPIO_PIN_8|GPIO_PIN_11|GPIO_PIN_12|GPIO_PIN_15,1);
 80001e6:	2201      	movs	r2, #1
 80001e8:	f44f 4119 	mov.w	r1, #39168	; 0x9900
 80001ec:	f04f 4090 	mov.w	r0, #1207959552	; 0x48000000
 80001f0:	f000 fc4a 	bl	8000a88 <HAL_GPIO_WritePin>
	  	  	  HAL_Delay(50);
 80001f4:	2032      	movs	r0, #50	; 0x32
 80001f6:	f000 f9d5 	bl	80005a4 <HAL_Delay>
	  	  	  HAL_GPIO_WritePin(GPIOB,GPIO_PIN_0|GPIO_PIN_1|GPIO_PIN_3|GPIO_PIN_4
 80001fa:	2200      	movs	r2, #0
 80001fc:	21fb      	movs	r1, #251	; 0xfb
 80001fe:	4807      	ldr	r0, [pc, #28]	; (800021c <main+0x50>)
 8000200:	f000 fc42 	bl	8000a88 <HAL_GPIO_WritePin>
	  	                |GPIO_PIN_5|GPIO_PIN_6|GPIO_PIN_7, 0);
	  	  	HAL_GPIO_WritePin(GPIOA, GPIO_PIN_8|GPIO_PIN_11|GPIO_PIN_12|GPIO_PIN_15,0);
 8000204:	2200      	movs	r2, #0
 8000206:	f44f 4119 	mov.w	r1, #39168	; 0x9900
 800020a:	f04f 4090 	mov.w	r0, #1207959552	; 0x48000000
 800020e:	f000 fc3b 	bl	8000a88 <HAL_GPIO_WritePin>
	  	  	  HAL_Delay(50);
 8000212:	2032      	movs	r0, #50	; 0x32
 8000214:	f000 f9c6 	bl	80005a4 <HAL_Delay>
	  HAL_GPIO_WritePin(GPIOB,GPIO_PIN_0|GPIO_PIN_1|GPIO_PIN_3|GPIO_PIN_4
 8000218:	e7e0      	b.n	80001dc <main+0x10>
 800021a:	bf00      	nop
 800021c:	48000400 	.word	0x48000400

08000220 <SystemClock_Config>:
/**
  * @brief System Clock Configuration
  * @retval None
  */
void SystemClock_Config(void)
{
 8000220:	b580      	push	{r7, lr}
 8000222:	b096      	sub	sp, #88	; 0x58
 8000224:	af00      	add	r7, sp, #0
  RCC_OscInitTypeDef RCC_OscInitStruct = {0};
 8000226:	f107 0314 	add.w	r3, r7, #20
 800022a:	2244      	movs	r2, #68	; 0x44
 800022c:	2100      	movs	r1, #0
 800022e:	4618      	mov	r0, r3
 8000230:	f001 fab6 	bl	80017a0 <memset>
  RCC_ClkInitTypeDef RCC_ClkInitStruct = {0};
 8000234:	463b      	mov	r3, r7
 8000236:	2200      	movs	r2, #0
 8000238:	601a      	str	r2, [r3, #0]
 800023a:	605a      	str	r2, [r3, #4]
 800023c:	609a      	str	r2, [r3, #8]
 800023e:	60da      	str	r2, [r3, #12]
 8000240:	611a      	str	r2, [r3, #16]

  /** Initializes the RCC Oscillators according to the specified parameters
  * in the RCC_OscInitTypeDef structure.
  */
  RCC_OscInitStruct.OscillatorType = RCC_OSCILLATORTYPE_MSI;
 8000242:	2310      	movs	r3, #16
 8000244:	617b      	str	r3, [r7, #20]
  RCC_OscInitStruct.MSIState = RCC_MSI_ON;
 8000246:	2301      	movs	r3, #1
 8000248:	62fb      	str	r3, [r7, #44]	; 0x2c
  RCC_OscInitStruct.MSICalibrationValue = 0;
 800024a:	2300      	movs	r3, #0
 800024c:	633b      	str	r3, [r7, #48]	; 0x30
  RCC_OscInitStruct.MSIClockRange = RCC_MSIRANGE_6;
 800024e:	2360      	movs	r3, #96	; 0x60
 8000250:	637b      	str	r3, [r7, #52]	; 0x34
  RCC_OscInitStruct.PLL.PLLState = RCC_PLL_NONE;
 8000252:	2300      	movs	r3, #0
 8000254:	63fb      	str	r3, [r7, #60]	; 0x3c
  if (HAL_RCC_OscConfig(&RCC_OscInitStruct) != HAL_OK)
 8000256:	f107 0314 	add.w	r3, r7, #20
 800025a:	4618      	mov	r0, r3
 800025c:	f000 fc90 	bl	8000b80 <HAL_RCC_OscConfig>
 8000260:	4603      	mov	r3, r0
 8000262:	2b00      	cmp	r3, #0
 8000264:	d001      	beq.n	800026a <SystemClock_Config+0x4a>
  {
    Error_Handler();
 8000266:	f000 f877 	bl	8000358 <Error_Handler>
  }
  /** Initializes the CPU, AHB and APB buses clocks
  */
  RCC_ClkInitStruct.ClockType = RCC_CLOCKTYPE_HCLK|RCC_CLOCKTYPE_SYSCLK
 800026a:	230f      	movs	r3, #15
 800026c:	603b      	str	r3, [r7, #0]
                              |RCC_CLOCKTYPE_PCLK1|RCC_CLOCKTYPE_PCLK2;
  RCC_ClkInitStruct.SYSCLKSource = RCC_SYSCLKSOURCE_MSI;
 800026e:	2300      	movs	r3, #0
 8000270:	607b      	str	r3, [r7, #4]
  RCC_ClkInitStruct.AHBCLKDivider = RCC_SYSCLK_DIV1;
 8000272:	2300      	movs	r3, #0
 8000274:	60bb      	str	r3, [r7, #8]
  RCC_ClkInitStruct.APB1CLKDivider = RCC_HCLK_DIV1;
 8000276:	2300      	movs	r3, #0
 8000278:	60fb      	str	r3, [r7, #12]
  RCC_ClkInitStruct.APB2CLKDivider = RCC_HCLK_DIV1;
 800027a:	2300      	movs	r3, #0
 800027c:	613b      	str	r3, [r7, #16]

  if (HAL_RCC_ClockConfig(&RCC_ClkInitStruct, FLASH_LATENCY_0) != HAL_OK)
 800027e:	463b      	mov	r3, r7
 8000280:	2100      	movs	r1, #0
 8000282:	4618      	mov	r0, r3
 8000284:	f001 f89c 	bl	80013c0 <HAL_RCC_ClockConfig>
 8000288:	4603      	mov	r3, r0
 800028a:	2b00      	cmp	r3, #0
 800028c:	d001      	beq.n	8000292 <SystemClock_Config+0x72>
  {
    Error_Handler();
 800028e:	f000 f863 	bl	8000358 <Error_Handler>
  }
  /** Configure the main internal regulator output voltage
  */
  if (HAL_PWREx_ControlVoltageScaling(PWR_REGULATOR_VOLTAGE_SCALE1) != HAL_OK)
 8000292:	f44f 7000 	mov.w	r0, #512	; 0x200
 8000296:	f000 fc1d 	bl	8000ad4 <HAL_PWREx_ControlVoltageScaling>
 800029a:	4603      	mov	r3, r0
 800029c:	2b00      	cmp	r3, #0
 800029e:	d001      	beq.n	80002a4 <SystemClock_Config+0x84>
  {
    Error_Handler();
 80002a0:	f000 f85a 	bl	8000358 <Error_Handler>
  }
}
 80002a4:	bf00      	nop
 80002a6:	3758      	adds	r7, #88	; 0x58
 80002a8:	46bd      	mov	sp, r7
 80002aa:	bd80      	pop	{r7, pc}

080002ac <MX_GPIO_Init>:
  * @brief GPIO Initialization Function
  * @param None
  * @retval None
  */
static void MX_GPIO_Init(void)
{
 80002ac:	b580      	push	{r7, lr}
 80002ae:	b088      	sub	sp, #32
 80002b0:	af00      	add	r7, sp, #0
  GPIO_InitTypeDef GPIO_InitStruct = {0};
 80002b2:	f107 030c 	add.w	r3, r7, #12
 80002b6:	2200      	movs	r2, #0
 80002b8:	601a      	str	r2, [r3, #0]
 80002ba:	605a      	str	r2, [r3, #4]
 80002bc:	609a      	str	r2, [r3, #8]
 80002be:	60da      	str	r2, [r3, #12]
 80002c0:	611a      	str	r2, [r3, #16]

  /* GPIO Ports Clock Enable */
  __HAL_RCC_GPIOB_CLK_ENABLE();
 80002c2:	4b23      	ldr	r3, [pc, #140]	; (8000350 <MX_GPIO_Init+0xa4>)
 80002c4:	6cdb      	ldr	r3, [r3, #76]	; 0x4c
 80002c6:	4a22      	ldr	r2, [pc, #136]	; (8000350 <MX_GPIO_Init+0xa4>)
 80002c8:	f043 0302 	orr.w	r3, r3, #2
 80002cc:	64d3      	str	r3, [r2, #76]	; 0x4c
 80002ce:	4b20      	ldr	r3, [pc, #128]	; (8000350 <MX_GPIO_Init+0xa4>)
 80002d0:	6cdb      	ldr	r3, [r3, #76]	; 0x4c
 80002d2:	f003 0302 	and.w	r3, r3, #2
 80002d6:	60bb      	str	r3, [r7, #8]
 80002d8:	68bb      	ldr	r3, [r7, #8]
  __HAL_RCC_GPIOA_CLK_ENABLE();
 80002da:	4b1d      	ldr	r3, [pc, #116]	; (8000350 <MX_GPIO_Init+0xa4>)
 80002dc:	6cdb      	ldr	r3, [r3, #76]	; 0x4c
 80002de:	4a1c      	ldr	r2, [pc, #112]	; (8000350 <MX_GPIO_Init+0xa4>)
 80002e0:	f043 0301 	orr.w	r3, r3, #1
 80002e4:	64d3      	str	r3, [r2, #76]	; 0x4c
 80002e6:	4b1a      	ldr	r3, [pc, #104]	; (8000350 <MX_GPIO_Init+0xa4>)
 80002e8:	6cdb      	ldr	r3, [r3, #76]	; 0x4c
 80002ea:	f003 0301 	and.w	r3, r3, #1
 80002ee:	607b      	str	r3, [r7, #4]
 80002f0:	687b      	ldr	r3, [r7, #4]

  /*Configure GPIO pin Output Level */
  HAL_GPIO_WritePin(GPIOB, GPIO_PIN_0|GPIO_PIN_1|GPIO_PIN_3|GPIO_PIN_4
 80002f2:	2200      	movs	r2, #0
 80002f4:	21fb      	movs	r1, #251	; 0xfb
 80002f6:	4817      	ldr	r0, [pc, #92]	; (8000354 <MX_GPIO_Init+0xa8>)
 80002f8:	f000 fbc6 	bl	8000a88 <HAL_GPIO_WritePin>
                          |GPIO_PIN_5|GPIO_PIN_6|GPIO_PIN_7, GPIO_PIN_RESET);

  /*Configure GPIO pin Output Level */
  HAL_GPIO_WritePin(GPIOA, GPIO_PIN_8|GPIO_PIN_11|GPIO_PIN_12|GPIO_PIN_15, GPIO_PIN_RESET);
 80002fc:	2200      	movs	r2, #0
 80002fe:	f44f 4119 	mov.w	r1, #39168	; 0x9900
 8000302:	f04f 4090 	mov.w	r0, #1207959552	; 0x48000000
 8000306:	f000 fbbf 	bl	8000a88 <HAL_GPIO_WritePin>

  /*Configure GPIO pins : PB0 PB1 PB3 PB4
                           PB5 PB6 PB7 */
  GPIO_InitStruct.Pin = GPIO_PIN_0|GPIO_PIN_1|GPIO_PIN_3|GPIO_PIN_4
 800030a:	23fb      	movs	r3, #251	; 0xfb
 800030c:	60fb      	str	r3, [r7, #12]
                          |GPIO_PIN_5|GPIO_PIN_6|GPIO_PIN_7;
  GPIO_InitStruct.Mode = GPIO_MODE_OUTPUT_PP;
 800030e:	2301      	movs	r3, #1
 8000310:	613b      	str	r3, [r7, #16]
  GPIO_InitStruct.Pull = GPIO_NOPULL;
 8000312:	2300      	movs	r3, #0
 8000314:	617b      	str	r3, [r7, #20]
  GPIO_InitStruct.Speed = GPIO_SPEED_FREQ_LOW;
 8000316:	2300      	movs	r3, #0
 8000318:	61bb      	str	r3, [r7, #24]
  HAL_GPIO_Init(GPIOB, &GPIO_InitStruct);
 800031a:	f107 030c 	add.w	r3, r7, #12
 800031e:	4619      	mov	r1, r3
 8000320:	480c      	ldr	r0, [pc, #48]	; (8000354 <MX_GPIO_Init+0xa8>)
 8000322:	f000 fa47 	bl	80007b4 <HAL_GPIO_Init>

  /*Configure GPIO pins : PA8 PA11 PA12 PA15 */
  GPIO_InitStruct.Pin = GPIO_PIN_8|GPIO_PIN_11|GPIO_PIN_12|GPIO_PIN_15;
 8000326:	f44f 4319 	mov.w	r3, #39168	; 0x9900
 800032a:	60fb      	str	r3, [r7, #12]
  GPIO_InitStruct.Mode = GPIO_MODE_OUTPUT_PP;
 800032c:	2301      	movs	r3, #1
 800032e:	613b      	str	r3, [r7, #16]
  GPIO_InitStruct.Pull = GPIO_NOPULL;
 8000330:	2300      	movs	r3, #0
 8000332:	617b      	str	r3, [r7, #20]
  GPIO_InitStruct.Speed = GPIO_SPEED_FREQ_LOW;
 8000334:	2300      	movs	r3, #0
 8000336:	61bb      	str	r3, [r7, #24]
  HAL_GPIO_Init(GPIOA, &GPIO_InitStruct);
 8000338:	f107 030c 	add.w	r3, r7, #12
 800033c:	4619      	mov	r1, r3
 800033e:	f04f 4090 	mov.w	r0, #1207959552	; 0x48000000
 8000342:	f000 fa37 	bl	80007b4 <HAL_GPIO_Init>

}
 8000346:	bf00      	nop
 8000348:	3720      	adds	r7, #32
 800034a:	46bd      	mov	sp, r7
 800034c:	bd80      	pop	{r7, pc}
 800034e:	bf00      	nop
 8000350:	40021000 	.word	0x40021000
 8000354:	48000400 	.word	0x48000400

08000358 <Error_Handler>:
/**
  * @brief  This function is executed in case of error occurrence.
  * @retval None
  */
void Error_Handler(void)
{
 8000358:	b480      	push	{r7}
 800035a:	af00      	add	r7, sp, #0
  \details Disables IRQ interrupts by setting the I-bit in the CPSR.
           Can only be executed in Privileged modes.
 */
__STATIC_FORCEINLINE void __disable_irq(void)
{
  __ASM volatile ("cpsid i" : : : "memory");
 800035c:	b672      	cpsid	i
  /* USER CODE BEGIN Error_Handler_Debug */
  /* User can add his own implementation to report the HAL error return state */
  __disable_irq();
  while (1)
 800035e:	e7fe      	b.n	800035e <Error_Handler+0x6>

08000360 <HAL_MspInit>:
/* USER CODE END 0 */
/**
  * Initializes the Global MSP.
  */
void HAL_MspInit(void)
{
 8000360:	b480      	push	{r7}
 8000362:	b083      	sub	sp, #12
 8000364:	af00      	add	r7, sp, #0
  /* USER CODE BEGIN MspInit 0 */

  /* USER CODE END MspInit 0 */

  __HAL_RCC_SYSCFG_CLK_ENABLE();
 8000366:	4b0f      	ldr	r3, [pc, #60]	; (80003a4 <HAL_MspInit+0x44>)
 8000368:	6e1b      	ldr	r3, [r3, #96]	; 0x60
 800036a:	4a0e      	ldr	r2, [pc, #56]	; (80003a4 <HAL_MspInit+0x44>)
 800036c:	f043 0301 	orr.w	r3, r3, #1
 8000370:	6613      	str	r3, [r2, #96]	; 0x60
 8000372:	4b0c      	ldr	r3, [pc, #48]	; (80003a4 <HAL_MspInit+0x44>)
 8000374:	6e1b      	ldr	r3, [r3, #96]	; 0x60
 8000376:	f003 0301 	and.w	r3, r3, #1
 800037a:	607b      	str	r3, [r7, #4]
 800037c:	687b      	ldr	r3, [r7, #4]
  __HAL_RCC_PWR_CLK_ENABLE();
 800037e:	4b09      	ldr	r3, [pc, #36]	; (80003a4 <HAL_MspInit+0x44>)
 8000380:	6d9b      	ldr	r3, [r3, #88]	; 0x58
 8000382:	4a08      	ldr	r2, [pc, #32]	; (80003a4 <HAL_MspInit+0x44>)
 8000384:	f043 5380 	orr.w	r3, r3, #268435456	; 0x10000000
 8000388:	6593      	str	r3, [r2, #88]	; 0x58
 800038a:	4b06      	ldr	r3, [pc, #24]	; (80003a4 <HAL_MspInit+0x44>)
 800038c:	6d9b      	ldr	r3, [r3, #88]	; 0x58
 800038e:	f003 5380 	and.w	r3, r3, #268435456	; 0x10000000
 8000392:	603b      	str	r3, [r7, #0]
 8000394:	683b      	ldr	r3, [r7, #0]
  /* System interrupt init*/

  /* USER CODE BEGIN MspInit 1 */

  /* USER CODE END MspInit 1 */
}
 8000396:	bf00      	nop
 8000398:	370c      	adds	r7, #12
 800039a:	46bd      	mov	sp, r7
 800039c:	f85d 7b04 	ldr.w	r7, [sp], #4
 80003a0:	4770      	bx	lr
 80003a2:	bf00      	nop
 80003a4:	40021000 	.word	0x40021000

080003a8 <NMI_Handler>:
/******************************************************************************/
/**
  * @brief This function handles Non maskable interrupt.
  */
void NMI_Handler(void)
{
 80003a8:	b480      	push	{r7}
 80003aa:	af00      	add	r7, sp, #0
  /* USER CODE BEGIN NonMaskableInt_IRQn 0 */

  /* USER CODE END NonMaskableInt_IRQn 0 */
  /* USER CODE BEGIN NonMaskableInt_IRQn 1 */
  while (1)
 80003ac:	e7fe      	b.n	80003ac <NMI_Handler+0x4>

080003ae <HardFault_Handler>:

/**
  * @brief This function handles Hard fault interrupt.
  */
void HardFault_Handler(void)
{
 80003ae:	b480      	push	{r7}
 80003b0:	af00      	add	r7, sp, #0
  /* USER CODE BEGIN HardFault_IRQn 0 */

  /* USER CODE END HardFault_IRQn 0 */
  while (1)
 80003b2:	e7fe      	b.n	80003b2 <HardFault_Handler+0x4>

080003b4 <MemManage_Handler>:

/**
  * @brief This function handles Memory management fault.
  */
void MemManage_Handler(void)
{
 80003b4:	b480      	push	{r7}
 80003b6:	af00      	add	r7, sp, #0
  /* USER CODE BEGIN MemoryManagement_IRQn 0 */

  /* USER CODE END MemoryManagement_IRQn 0 */
  while (1)
 80003b8:	e7fe      	b.n	80003b8 <MemManage_Handler+0x4>

080003ba <BusFault_Handler>:

/**
  * @brief This function handles Prefetch fault, memory access fault.
  */
void BusFault_Handler(void)
{
 80003ba:	b480      	push	{r7}
 80003bc:	af00      	add	r7, sp, #0
  /* USER CODE BEGIN BusFault_IRQn 0 */

  /* USER CODE END BusFault_IRQn 0 */
  while (1)
 80003be:	e7fe      	b.n	80003be <BusFault_Handler+0x4>

080003c0 <UsageFault_Handler>:

/**
  * @brief This function handles Undefined instruction or illegal state.
  */
void UsageFault_Handler(void)
{
 80003c0:	b480      	push	{r7}
 80003c2:	af00      	add	r7, sp, #0
  /* USER CODE BEGIN UsageFault_IRQn 0 */

  /* USER CODE END UsageFault_IRQn 0 */
  while (1)
 80003c4:	e7fe      	b.n	80003c4 <UsageFault_Handler+0x4>

080003c6 <SVC_Handler>:

/**
  * @brief This function handles System service call via SWI instruction.
  */
void SVC_Handler(void)
{
 80003c6:	b480      	push	{r7}
 80003c8:	af00      	add	r7, sp, #0

  /* USER CODE END SVCall_IRQn 0 */
  /* USER CODE BEGIN SVCall_IRQn 1 */

  /* USER CODE END SVCall_IRQn 1 */
}
 80003ca:	bf00      	nop
 80003cc:	46bd      	mov	sp, r7
 80003ce:	f85d 7b04 	ldr.w	r7, [sp], #4
 80003d2:	4770      	bx	lr

080003d4 <DebugMon_Handler>:

/**
  * @brief This function handles Debug monitor.
  */
void DebugMon_Handler(void)
{
 80003d4:	b480      	push	{r7}
 80003d6:	af00      	add	r7, sp, #0

  /* USER CODE END DebugMonitor_IRQn 0 */
  /* USER CODE BEGIN DebugMonitor_IRQn 1 */

  /* USER CODE END DebugMonitor_IRQn 1 */
}
 80003d8:	bf00      	nop
 80003da:	46bd      	mov	sp, r7
 80003dc:	f85d 7b04 	ldr.w	r7, [sp], #4
 80003e0:	4770      	bx	lr

080003e2 <PendSV_Handler>:

/**
  * @brief This function handles Pendable request for system service.
  */
void PendSV_Handler(void)
{
 80003e2:	b480      	push	{r7}
 80003e4:	af00      	add	r7, sp, #0

  /* USER CODE END PendSV_IRQn 0 */
  /* USER CODE BEGIN PendSV_IRQn 1 */

  /* USER CODE END PendSV_IRQn 1 */
}
 80003e6:	bf00      	nop
 80003e8:	46bd      	mov	sp, r7
 80003ea:	f85d 7b04 	ldr.w	r7, [sp], #4
 80003ee:	4770      	bx	lr

080003f0 <SysTick_Handler>:

/**
  * @brief This function handles System tick timer.
  */
void SysTick_Handler(void)
{
 80003f0:	b580      	push	{r7, lr}
 80003f2:	af00      	add	r7, sp, #0
  /* USER CODE BEGIN SysTick_IRQn 0 */

  /* USER CODE END SysTick_IRQn 0 */
  HAL_IncTick();
 80003f4:	f000 f8b6 	bl	8000564 <HAL_IncTick>
  /* USER CODE BEGIN SysTick_IRQn 1 */

  /* USER CODE END SysTick_IRQn 1 */
}
 80003f8:	bf00      	nop
 80003fa:	bd80      	pop	{r7, pc}

080003fc <SystemInit>:
  * @param  None
  * @retval None
  */

void SystemInit(void)
{
 80003fc:	b480      	push	{r7}
 80003fe:	af00      	add	r7, sp, #0
  /* FPU settings ------------------------------------------------------------*/
  #if (__FPU_PRESENT == 1) && (__FPU_USED == 1)
    SCB->CPACR |= ((3UL << 10*2)|(3UL << 11*2));  /* set CP10 and CP11 Full Access */
 8000400:	4b17      	ldr	r3, [pc, #92]	; (8000460 <SystemInit+0x64>)
 8000402:	f8d3 3088 	ldr.w	r3, [r3, #136]	; 0x88
 8000406:	4a16      	ldr	r2, [pc, #88]	; (8000460 <SystemInit+0x64>)
 8000408:	f443 0370 	orr.w	r3, r3, #15728640	; 0xf00000
 800040c:	f8c2 3088 	str.w	r3, [r2, #136]	; 0x88
  #endif

  /* Reset the RCC clock configuration to the default reset state ------------*/
  /* Set MSION bit */
  RCC->CR |= RCC_CR_MSION;
 8000410:	4b14      	ldr	r3, [pc, #80]	; (8000464 <SystemInit+0x68>)
 8000412:	681b      	ldr	r3, [r3, #0]
 8000414:	4a13      	ldr	r2, [pc, #76]	; (8000464 <SystemInit+0x68>)
 8000416:	f043 0301 	orr.w	r3, r3, #1
 800041a:	6013      	str	r3, [r2, #0]

  /* Reset CFGR register */
  RCC->CFGR = 0x00000000U;
 800041c:	4b11      	ldr	r3, [pc, #68]	; (8000464 <SystemInit+0x68>)
 800041e:	2200      	movs	r2, #0
 8000420:	609a      	str	r2, [r3, #8]

  /* Reset HSEON, CSSON , HSION, and PLLON bits */
  RCC->CR &= 0xEAF6FFFFU;
 8000422:	4b10      	ldr	r3, [pc, #64]	; (8000464 <SystemInit+0x68>)
 8000424:	681b      	ldr	r3, [r3, #0]
 8000426:	4a0f      	ldr	r2, [pc, #60]	; (8000464 <SystemInit+0x68>)
 8000428:	f023 53a8 	bic.w	r3, r3, #352321536	; 0x15000000
 800042c:	f423 2310 	bic.w	r3, r3, #589824	; 0x90000
 8000430:	6013      	str	r3, [r2, #0]

  /* Reset PLLCFGR register */
  RCC->PLLCFGR = 0x00001000U;
 8000432:	4b0c      	ldr	r3, [pc, #48]	; (8000464 <SystemInit+0x68>)
 8000434:	f44f 5280 	mov.w	r2, #4096	; 0x1000
 8000438:	60da      	str	r2, [r3, #12]

  /* Reset HSEBYP bit */
  RCC->CR &= 0xFFFBFFFFU;
 800043a:	4b0a      	ldr	r3, [pc, #40]	; (8000464 <SystemInit+0x68>)
 800043c:	681b      	ldr	r3, [r3, #0]
 800043e:	4a09      	ldr	r2, [pc, #36]	; (8000464 <SystemInit+0x68>)
 8000440:	f423 2380 	bic.w	r3, r3, #262144	; 0x40000
 8000444:	6013      	str	r3, [r2, #0]

  /* Disable all interrupts */
  RCC->CIER = 0x00000000U;
 8000446:	4b07      	ldr	r3, [pc, #28]	; (8000464 <SystemInit+0x68>)
 8000448:	2200      	movs	r2, #0
 800044a:	619a      	str	r2, [r3, #24]

  /* Configure the Vector Table location add offset address ------------------*/
#ifdef VECT_TAB_SRAM
  SCB->VTOR = SRAM_BASE | VECT_TAB_OFFSET; /* Vector Table Relocation in Internal SRAM */
#else
  SCB->VTOR = FLASH_BASE | VECT_TAB_OFFSET; /* Vector Table Relocation in Internal FLASH */
 800044c:	4b04      	ldr	r3, [pc, #16]	; (8000460 <SystemInit+0x64>)
 800044e:	f04f 6200 	mov.w	r2, #134217728	; 0x8000000
 8000452:	609a      	str	r2, [r3, #8]
#endif
}
 8000454:	bf00      	nop
 8000456:	46bd      	mov	sp, r7
 8000458:	f85d 7b04 	ldr.w	r7, [sp], #4
 800045c:	4770      	bx	lr
 800045e:	bf00      	nop
 8000460:	e000ed00 	.word	0xe000ed00
 8000464:	40021000 	.word	0x40021000

08000468 <Reset_Handler>:

    .section	.text.Reset_Handler
	.weak	Reset_Handler
	.type	Reset_Handler, %function
Reset_Handler:
  ldr   sp, =_estack    /* Set stack pointer */
 8000468:	f8df d034 	ldr.w	sp, [pc, #52]	; 80004a0 <LoopForever+0x2>

/* Call the clock system initialization function.*/
    bl  SystemInit
 800046c:	f7ff ffc6 	bl	80003fc <SystemInit>

/* Copy the data segment initializers from flash to SRAM */
  movs	r1, #0
 8000470:	2100      	movs	r1, #0
  b	LoopCopyDataInit
 8000472:	e003      	b.n	800047c <LoopCopyDataInit>

08000474 <CopyDataInit>:

CopyDataInit:
	ldr	r3, =_sidata
 8000474:	4b0b      	ldr	r3, [pc, #44]	; (80004a4 <LoopForever+0x6>)
	ldr	r3, [r3, r1]
 8000476:	585b      	ldr	r3, [r3, r1]
	str	r3, [r0, r1]
 8000478:	5043      	str	r3, [r0, r1]
	adds	r1, r1, #4
 800047a:	3104      	adds	r1, #4

0800047c <LoopCopyDataInit>:

LoopCopyDataInit:
	ldr	r0, =_sdata
 800047c:	480a      	ldr	r0, [pc, #40]	; (80004a8 <LoopForever+0xa>)
	ldr	r3, =_edata
 800047e:	4b0b      	ldr	r3, [pc, #44]	; (80004ac <LoopForever+0xe>)
	adds	r2, r0, r1
 8000480:	1842      	adds	r2, r0, r1
	cmp	r2, r3
 8000482:	429a      	cmp	r2, r3
	bcc	CopyDataInit
 8000484:	d3f6      	bcc.n	8000474 <CopyDataInit>
	ldr	r2, =_sbss
 8000486:	4a0a      	ldr	r2, [pc, #40]	; (80004b0 <LoopForever+0x12>)
	b	LoopFillZerobss
 8000488:	e002      	b.n	8000490 <LoopFillZerobss>

0800048a <FillZerobss>:
/* Zero fill the bss segment. */
FillZerobss:
	movs	r3, #0
 800048a:	2300      	movs	r3, #0
	str	r3, [r2], #4
 800048c:	f842 3b04 	str.w	r3, [r2], #4

08000490 <LoopFillZerobss>:

LoopFillZerobss:
	ldr	r3, = _ebss
 8000490:	4b08      	ldr	r3, [pc, #32]	; (80004b4 <LoopForever+0x16>)
	cmp	r2, r3
 8000492:	429a      	cmp	r2, r3
	bcc	FillZerobss
 8000494:	d3f9      	bcc.n	800048a <FillZerobss>

/* Call static constructors */
    bl __libc_init_array
 8000496:	f001 f95f 	bl	8001758 <__libc_init_array>
/* Call the application's entry point.*/
	bl	main
 800049a:	f7ff fe97 	bl	80001cc <main>

0800049e <LoopForever>:

LoopForever:
    b LoopForever
 800049e:	e7fe      	b.n	800049e <LoopForever>
  ldr   sp, =_estack    /* Set stack pointer */
 80004a0:	20010000 	.word	0x20010000
	ldr	r3, =_sidata
 80004a4:	08001810 	.word	0x08001810
	ldr	r0, =_sdata
 80004a8:	20000000 	.word	0x20000000
	ldr	r3, =_edata
 80004ac:	2000000c 	.word	0x2000000c
	ldr	r2, =_sbss
 80004b0:	2000000c 	.word	0x2000000c
	ldr	r3, = _ebss
 80004b4:	2000002c 	.word	0x2000002c

080004b8 <ADC1_IRQHandler>:
 * @retval : None
*/
    .section	.text.Default_Handler,"ax",%progbits
Default_Handler:
Infinite_Loop:
	b	Infinite_Loop
 80004b8:	e7fe      	b.n	80004b8 <ADC1_IRQHandler>

080004ba <HAL_Init>:
  *         each 1ms in the SysTick_Handler() interrupt handler.
  *
  * @retval HAL status
  */
HAL_StatusTypeDef HAL_Init(void)
{
 80004ba:	b580      	push	{r7, lr}
 80004bc:	b082      	sub	sp, #8
 80004be:	af00      	add	r7, sp, #0
  HAL_StatusTypeDef  status = HAL_OK;
 80004c0:	2300      	movs	r3, #0
 80004c2:	71fb      	strb	r3, [r7, #7]
#if (PREFETCH_ENABLE != 0)
  __HAL_FLASH_PREFETCH_BUFFER_ENABLE();
#endif /* PREFETCH_ENABLE */

  /* Set Interrupt Group Priority */
  HAL_NVIC_SetPriorityGrouping(NVIC_PRIORITYGROUP_4);
 80004c4:	2003      	movs	r0, #3
 80004c6:	f000 f941 	bl	800074c <HAL_NVIC_SetPriorityGrouping>

  /* Use SysTick as time base source and configure 1ms tick (default clock after Reset is MSI) */
  if (HAL_InitTick(TICK_INT_PRIORITY) != HAL_OK)
 80004ca:	2000      	movs	r0, #0
 80004cc:	f000 f80e 	bl	80004ec <HAL_InitTick>
 80004d0:	4603      	mov	r3, r0
 80004d2:	2b00      	cmp	r3, #0
 80004d4:	d002      	beq.n	80004dc <HAL_Init+0x22>
  {
    status = HAL_ERROR;
 80004d6:	2301      	movs	r3, #1
 80004d8:	71fb      	strb	r3, [r7, #7]
 80004da:	e001      	b.n	80004e0 <HAL_Init+0x26>
  }
  else
  {
    /* Init the low level hardware */
    HAL_MspInit();
 80004dc:	f7ff ff40 	bl	8000360 <HAL_MspInit>
  }

  /* Return function status */
  return status;
 80004e0:	79fb      	ldrb	r3, [r7, #7]
}
 80004e2:	4618      	mov	r0, r3
 80004e4:	3708      	adds	r7, #8
 80004e6:	46bd      	mov	sp, r7
 80004e8:	bd80      	pop	{r7, pc}
	...

080004ec <HAL_InitTick>:
  *       implementation  in user file.
  * @param TickPriority  Tick interrupt priority.
  * @retval HAL status
  */
__weak HAL_StatusTypeDef HAL_InitTick(uint32_t TickPriority)
{
 80004ec:	b580      	push	{r7, lr}
 80004ee:	b084      	sub	sp, #16
 80004f0:	af00      	add	r7, sp, #0
 80004f2:	6078      	str	r0, [r7, #4]
  HAL_StatusTypeDef  status = HAL_OK;
 80004f4:	2300      	movs	r3, #0
 80004f6:	73fb      	strb	r3, [r7, #15]

  /* Check uwTickFreq for MisraC 2012 (even if uwTickFreq is a enum type that doesn't take the value zero)*/
  if ((uint32_t)uwTickFreq != 0U)
 80004f8:	4b17      	ldr	r3, [pc, #92]	; (8000558 <HAL_InitTick+0x6c>)
 80004fa:	781b      	ldrb	r3, [r3, #0]
 80004fc:	2b00      	cmp	r3, #0
 80004fe:	d023      	beq.n	8000548 <HAL_InitTick+0x5c>
  {
    /*Configure the SysTick to have interrupt in 1ms time basis*/
    if (HAL_SYSTICK_Config(SystemCoreClock / (1000U / (uint32_t)uwTickFreq)) == 0U)
 8000500:	4b16      	ldr	r3, [pc, #88]	; (800055c <HAL_InitTick+0x70>)
 8000502:	681a      	ldr	r2, [r3, #0]
 8000504:	4b14      	ldr	r3, [pc, #80]	; (8000558 <HAL_InitTick+0x6c>)
 8000506:	781b      	ldrb	r3, [r3, #0]
 8000508:	4619      	mov	r1, r3
 800050a:	f44f 737a 	mov.w	r3, #1000	; 0x3e8
 800050e:	fbb3 f3f1 	udiv	r3, r3, r1
 8000512:	fbb2 f3f3 	udiv	r3, r2, r3
 8000516:	4618      	mov	r0, r3
 8000518:	f000 f93f 	bl	800079a <HAL_SYSTICK_Config>
 800051c:	4603      	mov	r3, r0
 800051e:	2b00      	cmp	r3, #0
 8000520:	d10f      	bne.n	8000542 <HAL_InitTick+0x56>
    {
      /* Configure the SysTick IRQ priority */
      if (TickPriority < (1UL << __NVIC_PRIO_BITS))
 8000522:	687b      	ldr	r3, [r7, #4]
 8000524:	2b0f      	cmp	r3, #15
 8000526:	d809      	bhi.n	800053c <HAL_InitTick+0x50>
      {
        HAL_NVIC_SetPriority(SysTick_IRQn, TickPriority, 0U);
 8000528:	2200      	movs	r2, #0
 800052a:	6879      	ldr	r1, [r7, #4]
 800052c:	f04f 30ff 	mov.w	r0, #4294967295
 8000530:	f000 f917 	bl	8000762 <HAL_NVIC_SetPriority>
        uwTickPrio = TickPriority;
 8000534:	4a0a      	ldr	r2, [pc, #40]	; (8000560 <HAL_InitTick+0x74>)
 8000536:	687b      	ldr	r3, [r7, #4]
 8000538:	6013      	str	r3, [r2, #0]
 800053a:	e007      	b.n	800054c <HAL_InitTick+0x60>
      }
      else
      {
        status = HAL_ERROR;
 800053c:	2301      	movs	r3, #1
 800053e:	73fb      	strb	r3, [r7, #15]
 8000540:	e004      	b.n	800054c <HAL_InitTick+0x60>
      }
    }
    else
    {
      status = HAL_ERROR;
 8000542:	2301      	movs	r3, #1
 8000544:	73fb      	strb	r3, [r7, #15]
 8000546:	e001      	b.n	800054c <HAL_InitTick+0x60>
    }
  }
  else
  {
    status = HAL_ERROR;
 8000548:	2301      	movs	r3, #1
 800054a:	73fb      	strb	r3, [r7, #15]
  }

  /* Return function status */
  return status;
 800054c:	7bfb      	ldrb	r3, [r7, #15]
}
 800054e:	4618      	mov	r0, r3
 8000550:	3710      	adds	r7, #16
 8000552:	46bd      	mov	sp, r7
 8000554:	bd80      	pop	{r7, pc}
 8000556:	bf00      	nop
 8000558:	20000008 	.word	0x20000008
 800055c:	20000000 	.word	0x20000000
 8000560:	20000004 	.word	0x20000004

08000564 <HAL_IncTick>:
 * @note This function is declared as __weak to be overwritten in case of other
  *      implementations in user file.
  * @retval None
  */
__weak void HAL_IncTick(void)
{
 8000564:	b480      	push	{r7}
 8000566:	af00      	add	r7, sp, #0
  uwTick += (uint32_t)uwTickFreq;
 8000568:	4b06      	ldr	r3, [pc, #24]	; (8000584 <HAL_IncTick+0x20>)
 800056a:	781b      	ldrb	r3, [r3, #0]
 800056c:	461a      	mov	r2, r3
 800056e:	4b06      	ldr	r3, [pc, #24]	; (8000588 <HAL_IncTick+0x24>)
 8000570:	681b      	ldr	r3, [r3, #0]
 8000572:	4413      	add	r3, r2
 8000574:	4a04      	ldr	r2, [pc, #16]	; (8000588 <HAL_IncTick+0x24>)
 8000576:	6013      	str	r3, [r2, #0]
}
 8000578:	bf00      	nop
 800057a:	46bd      	mov	sp, r7
 800057c:	f85d 7b04 	ldr.w	r7, [sp], #4
 8000580:	4770      	bx	lr
 8000582:	bf00      	nop
 8000584:	20000008 	.word	0x20000008
 8000588:	20000028 	.word	0x20000028

0800058c <HAL_GetTick>:
  * @note This function is declared as __weak to be overwritten in case of other
  *       implementations in user file.
  * @retval tick value
  */
__weak uint32_t HAL_GetTick(void)
{
 800058c:	b480      	push	{r7}
 800058e:	af00      	add	r7, sp, #0
  return uwTick;
 8000590:	4b03      	ldr	r3, [pc, #12]	; (80005a0 <HAL_GetTick+0x14>)
 8000592:	681b      	ldr	r3, [r3, #0]
}
 8000594:	4618      	mov	r0, r3
 8000596:	46bd      	mov	sp, r7
 8000598:	f85d 7b04 	ldr.w	r7, [sp], #4
 800059c:	4770      	bx	lr
 800059e:	bf00      	nop
 80005a0:	20000028 	.word	0x20000028

080005a4 <HAL_Delay>:
  *       implementations in user file.
  * @param Delay  specifies the delay time length, in milliseconds.
  * @retval None
  */
__weak void HAL_Delay(uint32_t Delay)
{
 80005a4:	b580      	push	{r7, lr}
 80005a6:	b084      	sub	sp, #16
 80005a8:	af00      	add	r7, sp, #0
 80005aa:	6078      	str	r0, [r7, #4]
  uint32_t tickstart = HAL_GetTick();
 80005ac:	f7ff ffee 	bl	800058c <HAL_GetTick>
 80005b0:	60b8      	str	r0, [r7, #8]
  uint32_t wait = Delay;
 80005b2:	687b      	ldr	r3, [r7, #4]
 80005b4:	60fb      	str	r3, [r7, #12]

  /* Add a period to guaranty minimum wait */
  if (wait < HAL_MAX_DELAY)
 80005b6:	68fb      	ldr	r3, [r7, #12]
 80005b8:	f1b3 3fff 	cmp.w	r3, #4294967295
 80005bc:	d005      	beq.n	80005ca <HAL_Delay+0x26>
  {
    wait += (uint32_t)uwTickFreq;
 80005be:	4b09      	ldr	r3, [pc, #36]	; (80005e4 <HAL_Delay+0x40>)
 80005c0:	781b      	ldrb	r3, [r3, #0]
 80005c2:	461a      	mov	r2, r3
 80005c4:	68fb      	ldr	r3, [r7, #12]
 80005c6:	4413      	add	r3, r2
 80005c8:	60fb      	str	r3, [r7, #12]
  }

  while ((HAL_GetTick() - tickstart) < wait)
 80005ca:	bf00      	nop
 80005cc:	f7ff ffde 	bl	800058c <HAL_GetTick>
 80005d0:	4602      	mov	r2, r0
 80005d2:	68bb      	ldr	r3, [r7, #8]
 80005d4:	1ad3      	subs	r3, r2, r3
 80005d6:	68fa      	ldr	r2, [r7, #12]
 80005d8:	429a      	cmp	r2, r3
 80005da:	d8f7      	bhi.n	80005cc <HAL_Delay+0x28>
  {
  }
}
 80005dc:	bf00      	nop
 80005de:	3710      	adds	r7, #16
 80005e0:	46bd      	mov	sp, r7
 80005e2:	bd80      	pop	{r7, pc}
 80005e4:	20000008 	.word	0x20000008

080005e8 <__NVIC_SetPriorityGrouping>:
           In case of a conflict between priority grouping and available
           priority bits (__NVIC_PRIO_BITS), the smallest possible priority group is set.
  \param [in]      PriorityGroup  Priority grouping field.
 */
__STATIC_INLINE void __NVIC_SetPriorityGrouping(uint32_t PriorityGroup)
{
 80005e8:	b480      	push	{r7}
 80005ea:	b085      	sub	sp, #20
 80005ec:	af00      	add	r7, sp, #0
 80005ee:	6078      	str	r0, [r7, #4]
  uint32_t reg_value;
  uint32_t PriorityGroupTmp = (PriorityGroup & (uint32_t)0x07UL);             /* only values 0..7 are used          */
 80005f0:	687b      	ldr	r3, [r7, #4]
 80005f2:	f003 0307 	and.w	r3, r3, #7
 80005f6:	60fb      	str	r3, [r7, #12]

  reg_value  =  SCB->AIRCR;                                                   /* read old register configuration    */
 80005f8:	4b0c      	ldr	r3, [pc, #48]	; (800062c <__NVIC_SetPriorityGrouping+0x44>)
 80005fa:	68db      	ldr	r3, [r3, #12]
 80005fc:	60bb      	str	r3, [r7, #8]
  reg_value &= ~((uint32_t)(SCB_AIRCR_VECTKEY_Msk | SCB_AIRCR_PRIGROUP_Msk)); /* clear bits to change               */
 80005fe:	68ba      	ldr	r2, [r7, #8]
 8000600:	f64f 03ff 	movw	r3, #63743	; 0xf8ff
 8000604:	4013      	ands	r3, r2
 8000606:	60bb      	str	r3, [r7, #8]
  reg_value  =  (reg_value                                   |
                ((uint32_t)0x5FAUL << SCB_AIRCR_VECTKEY_Pos) |
                (PriorityGroupTmp << SCB_AIRCR_PRIGROUP_Pos)  );              /* Insert write key and priority group */
 8000608:	68fb      	ldr	r3, [r7, #12]
 800060a:	021a      	lsls	r2, r3, #8
                ((uint32_t)0x5FAUL << SCB_AIRCR_VECTKEY_Pos) |
 800060c:	68bb      	ldr	r3, [r7, #8]
 800060e:	4313      	orrs	r3, r2
  reg_value  =  (reg_value                                   |
 8000610:	f043 63bf 	orr.w	r3, r3, #100139008	; 0x5f80000
 8000614:	f443 3300 	orr.w	r3, r3, #131072	; 0x20000
 8000618:	60bb      	str	r3, [r7, #8]
  SCB->AIRCR =  reg_value;
 800061a:	4a04      	ldr	r2, [pc, #16]	; (800062c <__NVIC_SetPriorityGrouping+0x44>)
 800061c:	68bb      	ldr	r3, [r7, #8]
 800061e:	60d3      	str	r3, [r2, #12]
}
 8000620:	bf00      	nop
 8000622:	3714      	adds	r7, #20
 8000624:	46bd      	mov	sp, r7
 8000626:	f85d 7b04 	ldr.w	r7, [sp], #4
 800062a:	4770      	bx	lr
 800062c:	e000ed00 	.word	0xe000ed00

08000630 <__NVIC_GetPriorityGrouping>:
  \brief   Get Priority Grouping
  \details Reads the priority grouping field from the NVIC Interrupt Controller.
  \return                Priority grouping field (SCB->AIRCR [10:8] PRIGROUP field).
 */
__STATIC_INLINE uint32_t __NVIC_GetPriorityGrouping(void)
{
 8000630:	b480      	push	{r7}
 8000632:	af00      	add	r7, sp, #0
  return ((uint32_t)((SCB->AIRCR & SCB_AIRCR_PRIGROUP_Msk) >> SCB_AIRCR_PRIGROUP_Pos));
 8000634:	4b04      	ldr	r3, [pc, #16]	; (8000648 <__NVIC_GetPriorityGrouping+0x18>)
 8000636:	68db      	ldr	r3, [r3, #12]
 8000638:	0a1b      	lsrs	r3, r3, #8
 800063a:	f003 0307 	and.w	r3, r3, #7
}
 800063e:	4618      	mov	r0, r3
 8000640:	46bd      	mov	sp, r7
 8000642:	f85d 7b04 	ldr.w	r7, [sp], #4
 8000646:	4770      	bx	lr
 8000648:	e000ed00 	.word	0xe000ed00

0800064c <__NVIC_SetPriority>:
  \param [in]      IRQn  Interrupt number.
  \param [in]  priority  Priority to set.
  \note    The priority cannot be set for every processor exception.
 */
__STATIC_INLINE void __NVIC_SetPriority(IRQn_Type IRQn, uint32_t priority)
{
 800064c:	b480      	push	{r7}
 800064e:	b083      	sub	sp, #12
 8000650:	af00      	add	r7, sp, #0
 8000652:	4603      	mov	r3, r0
 8000654:	6039      	str	r1, [r7, #0]
 8000656:	71fb      	strb	r3, [r7, #7]
  if ((int32_t)(IRQn) >= 0)
 8000658:	f997 3007 	ldrsb.w	r3, [r7, #7]
 800065c:	2b00      	cmp	r3, #0
 800065e:	db0a      	blt.n	8000676 <__NVIC_SetPriority+0x2a>
  {
    NVIC->IP[((uint32_t)IRQn)]               = (uint8_t)((priority << (8U - __NVIC_PRIO_BITS)) & (uint32_t)0xFFUL);
 8000660:	683b      	ldr	r3, [r7, #0]
 8000662:	b2da      	uxtb	r2, r3
 8000664:	490c      	ldr	r1, [pc, #48]	; (8000698 <__NVIC_SetPriority+0x4c>)
 8000666:	f997 3007 	ldrsb.w	r3, [r7, #7]
 800066a:	0112      	lsls	r2, r2, #4
 800066c:	b2d2      	uxtb	r2, r2
 800066e:	440b      	add	r3, r1
 8000670:	f883 2300 	strb.w	r2, [r3, #768]	; 0x300
  }
  else
  {
    SCB->SHP[(((uint32_t)IRQn) & 0xFUL)-4UL] = (uint8_t)((priority << (8U - __NVIC_PRIO_BITS)) & (uint32_t)0xFFUL);
  }
}
 8000674:	e00a      	b.n	800068c <__NVIC_SetPriority+0x40>
    SCB->SHP[(((uint32_t)IRQn) & 0xFUL)-4UL] = (uint8_t)((priority << (8U - __NVIC_PRIO_BITS)) & (uint32_t)0xFFUL);
 8000676:	683b      	ldr	r3, [r7, #0]
 8000678:	b2da      	uxtb	r2, r3
 800067a:	4908      	ldr	r1, [pc, #32]	; (800069c <__NVIC_SetPriority+0x50>)
 800067c:	79fb      	ldrb	r3, [r7, #7]
 800067e:	f003 030f 	and.w	r3, r3, #15
 8000682:	3b04      	subs	r3, #4
 8000684:	0112      	lsls	r2, r2, #4
 8000686:	b2d2      	uxtb	r2, r2
 8000688:	440b      	add	r3, r1
 800068a:	761a      	strb	r2, [r3, #24]
}
 800068c:	bf00      	nop
 800068e:	370c      	adds	r7, #12
 8000690:	46bd      	mov	sp, r7
 8000692:	f85d 7b04 	ldr.w	r7, [sp], #4
 8000696:	4770      	bx	lr
 8000698:	e000e100 	.word	0xe000e100
 800069c:	e000ed00 	.word	0xe000ed00

080006a0 <NVIC_EncodePriority>:
  \param [in]   PreemptPriority  Preemptive priority value (starting from 0).
  \param [in]       SubPriority  Subpriority value (starting from 0).
  \return                        Encoded priority. Value can be used in the function \ref NVIC_SetPriority().
 */
__STATIC_INLINE uint32_t NVIC_EncodePriority (uint32_t PriorityGroup, uint32_t PreemptPriority, uint32_t SubPriority)
{
 80006a0:	b480      	push	{r7}
 80006a2:	b089      	sub	sp, #36	; 0x24
 80006a4:	af00      	add	r7, sp, #0
 80006a6:	60f8      	str	r0, [r7, #12]
 80006a8:	60b9      	str	r1, [r7, #8]
 80006aa:	607a      	str	r2, [r7, #4]
  uint32_t PriorityGroupTmp = (PriorityGroup & (uint32_t)0x07UL);   /* only values 0..7 are used          */
 80006ac:	68fb      	ldr	r3, [r7, #12]
 80006ae:	f003 0307 	and.w	r3, r3, #7
 80006b2:	61fb      	str	r3, [r7, #28]
  uint32_t PreemptPriorityBits;
  uint32_t SubPriorityBits;

  PreemptPriorityBits = ((7UL - PriorityGroupTmp) > (uint32_t)(__NVIC_PRIO_BITS)) ? (uint32_t)(__NVIC_PRIO_BITS) : (uint32_t)(7UL - PriorityGroupTmp);
 80006b4:	69fb      	ldr	r3, [r7, #28]
 80006b6:	f1c3 0307 	rsb	r3, r3, #7
 80006ba:	2b04      	cmp	r3, #4
 80006bc:	bf28      	it	cs
 80006be:	2304      	movcs	r3, #4
 80006c0:	61bb      	str	r3, [r7, #24]
  SubPriorityBits     = ((PriorityGroupTmp + (uint32_t)(__NVIC_PRIO_BITS)) < (uint32_t)7UL) ? (uint32_t)0UL : (uint32_t)((PriorityGroupTmp - 7UL) + (uint32_t)(__NVIC_PRIO_BITS));
 80006c2:	69fb      	ldr	r3, [r7, #28]
 80006c4:	3304      	adds	r3, #4
 80006c6:	2b06      	cmp	r3, #6
 80006c8:	d902      	bls.n	80006d0 <NVIC_EncodePriority+0x30>
 80006ca:	69fb      	ldr	r3, [r7, #28]
 80006cc:	3b03      	subs	r3, #3
 80006ce:	e000      	b.n	80006d2 <NVIC_EncodePriority+0x32>
 80006d0:	2300      	movs	r3, #0
 80006d2:	617b      	str	r3, [r7, #20]

  return (
           ((PreemptPriority & (uint32_t)((1UL << (PreemptPriorityBits)) - 1UL)) << SubPriorityBits) |
 80006d4:	f04f 32ff 	mov.w	r2, #4294967295
 80006d8:	69bb      	ldr	r3, [r7, #24]
 80006da:	fa02 f303 	lsl.w	r3, r2, r3
 80006de:	43da      	mvns	r2, r3
 80006e0:	68bb      	ldr	r3, [r7, #8]
 80006e2:	401a      	ands	r2, r3
 80006e4:	697b      	ldr	r3, [r7, #20]
 80006e6:	409a      	lsls	r2, r3
           ((SubPriority     & (uint32_t)((1UL << (SubPriorityBits    )) - 1UL)))
 80006e8:	f04f 31ff 	mov.w	r1, #4294967295
 80006ec:	697b      	ldr	r3, [r7, #20]
 80006ee:	fa01 f303 	lsl.w	r3, r1, r3
 80006f2:	43d9      	mvns	r1, r3
 80006f4:	687b      	ldr	r3, [r7, #4]
 80006f6:	400b      	ands	r3, r1
           ((PreemptPriority & (uint32_t)((1UL << (PreemptPriorityBits)) - 1UL)) << SubPriorityBits) |
 80006f8:	4313      	orrs	r3, r2
         );
}
 80006fa:	4618      	mov	r0, r3
 80006fc:	3724      	adds	r7, #36	; 0x24
 80006fe:	46bd      	mov	sp, r7
 8000700:	f85d 7b04 	ldr.w	r7, [sp], #4
 8000704:	4770      	bx	lr
	...

08000708 <SysTick_Config>:
  \note    When the variable <b>__Vendor_SysTickConfig</b> is set to 1, then the
           function <b>SysTick_Config</b> is not included. In this case, the file <b><i>device</i>.h</b>
           must contain a vendor-specific implementation of this function.
 */
__STATIC_INLINE uint32_t SysTick_Config(uint32_t ticks)
{
 8000708:	b580      	push	{r7, lr}
 800070a:	b082      	sub	sp, #8
 800070c:	af00      	add	r7, sp, #0
 800070e:	6078      	str	r0, [r7, #4]
  if ((ticks - 1UL) > SysTick_LOAD_RELOAD_Msk)
 8000710:	687b      	ldr	r3, [r7, #4]
 8000712:	3b01      	subs	r3, #1
 8000714:	f1b3 7f80 	cmp.w	r3, #16777216	; 0x1000000
 8000718:	d301      	bcc.n	800071e <SysTick_Config+0x16>
  {
    return (1UL);                                                   /* Reload value impossible */
 800071a:	2301      	movs	r3, #1
 800071c:	e00f      	b.n	800073e <SysTick_Config+0x36>
  }

  SysTick->LOAD  = (uint32_t)(ticks - 1UL);                         /* set reload register */
 800071e:	4a0a      	ldr	r2, [pc, #40]	; (8000748 <SysTick_Config+0x40>)
 8000720:	687b      	ldr	r3, [r7, #4]
 8000722:	3b01      	subs	r3, #1
 8000724:	6053      	str	r3, [r2, #4]
  NVIC_SetPriority (SysTick_IRQn, (1UL << __NVIC_PRIO_BITS) - 1UL); /* set Priority for Systick Interrupt */
 8000726:	210f      	movs	r1, #15
 8000728:	f04f 30ff 	mov.w	r0, #4294967295
 800072c:	f7ff ff8e 	bl	800064c <__NVIC_SetPriority>
  SysTick->VAL   = 0UL;                                             /* Load the SysTick Counter Value */
 8000730:	4b05      	ldr	r3, [pc, #20]	; (8000748 <SysTick_Config+0x40>)
 8000732:	2200      	movs	r2, #0
 8000734:	609a      	str	r2, [r3, #8]
  SysTick->CTRL  = SysTick_CTRL_CLKSOURCE_Msk |
 8000736:	4b04      	ldr	r3, [pc, #16]	; (8000748 <SysTick_Config+0x40>)
 8000738:	2207      	movs	r2, #7
 800073a:	601a      	str	r2, [r3, #0]
                   SysTick_CTRL_TICKINT_Msk   |
                   SysTick_CTRL_ENABLE_Msk;                         /* Enable SysTick IRQ and SysTick Timer */
  return (0UL);                                                     /* Function successful */
 800073c:	2300      	movs	r3, #0
}
 800073e:	4618      	mov	r0, r3
 8000740:	3708      	adds	r7, #8
 8000742:	46bd      	mov	sp, r7
 8000744:	bd80      	pop	{r7, pc}
 8000746:	bf00      	nop
 8000748:	e000e010 	.word	0xe000e010

0800074c <HAL_NVIC_SetPriorityGrouping>:
  * @note   When the NVIC_PriorityGroup_0 is selected, IRQ pre-emption is no more possible.
  *         The pending IRQ priority will be managed only by the subpriority.
  * @retval None
  */
void HAL_NVIC_SetPriorityGrouping(uint32_t PriorityGroup)
{
 800074c:	b580      	push	{r7, lr}
 800074e:	b082      	sub	sp, #8
 8000750:	af00      	add	r7, sp, #0
 8000752:	6078      	str	r0, [r7, #4]
  /* Check the parameters */
  assert_param(IS_NVIC_PRIORITY_GROUP(PriorityGroup));

  /* Set the PRIGROUP[10:8] bits according to the PriorityGroup parameter value */
  NVIC_SetPriorityGrouping(PriorityGroup);
 8000754:	6878      	ldr	r0, [r7, #4]
 8000756:	f7ff ff47 	bl	80005e8 <__NVIC_SetPriorityGrouping>
}
 800075a:	bf00      	nop
 800075c:	3708      	adds	r7, #8
 800075e:	46bd      	mov	sp, r7
 8000760:	bd80      	pop	{r7, pc}

08000762 <HAL_NVIC_SetPriority>:
  *         This parameter can be a value between 0 and 15
  *         A lower priority value indicates a higher priority.
  * @retval None
  */
void HAL_NVIC_SetPriority(IRQn_Type IRQn, uint32_t PreemptPriority, uint32_t SubPriority)
{
 8000762:	b580      	push	{r7, lr}
 8000764:	b086      	sub	sp, #24
 8000766:	af00      	add	r7, sp, #0
 8000768:	4603      	mov	r3, r0
 800076a:	60b9      	str	r1, [r7, #8]
 800076c:	607a      	str	r2, [r7, #4]
 800076e:	73fb      	strb	r3, [r7, #15]
  uint32_t prioritygroup = 0x00;
 8000770:	2300      	movs	r3, #0
 8000772:	617b      	str	r3, [r7, #20]

  /* Check the parameters */
  assert_param(IS_NVIC_SUB_PRIORITY(SubPriority));
  assert_param(IS_NVIC_PREEMPTION_PRIORITY(PreemptPriority));

  prioritygroup = NVIC_GetPriorityGrouping();
 8000774:	f7ff ff5c 	bl	8000630 <__NVIC_GetPriorityGrouping>
 8000778:	6178      	str	r0, [r7, #20]

  NVIC_SetPriority(IRQn, NVIC_EncodePriority(prioritygroup, PreemptPriority, SubPriority));
 800077a:	687a      	ldr	r2, [r7, #4]
 800077c:	68b9      	ldr	r1, [r7, #8]
 800077e:	6978      	ldr	r0, [r7, #20]
 8000780:	f7ff ff8e 	bl	80006a0 <NVIC_EncodePriority>
 8000784:	4602      	mov	r2, r0
 8000786:	f997 300f 	ldrsb.w	r3, [r7, #15]
 800078a:	4611      	mov	r1, r2
 800078c:	4618      	mov	r0, r3
 800078e:	f7ff ff5d 	bl	800064c <__NVIC_SetPriority>
}
 8000792:	bf00      	nop
 8000794:	3718      	adds	r7, #24
 8000796:	46bd      	mov	sp, r7
 8000798:	bd80      	pop	{r7, pc}

0800079a <HAL_SYSTICK_Config>:
  * @param  TicksNumb: Specifies the ticks Number of ticks between two interrupts.
  * @retval status:  - 0  Function succeeded.
  *                  - 1  Function failed.
  */
uint32_t HAL_SYSTICK_Config(uint32_t TicksNumb)
{
 800079a:	b580      	push	{r7, lr}
 800079c:	b082      	sub	sp, #8
 800079e:	af00      	add	r7, sp, #0
 80007a0:	6078      	str	r0, [r7, #4]
   return SysTick_Config(TicksNumb);
 80007a2:	6878      	ldr	r0, [r7, #4]
 80007a4:	f7ff ffb0 	bl	8000708 <SysTick_Config>
 80007a8:	4603      	mov	r3, r0
}
 80007aa:	4618      	mov	r0, r3
 80007ac:	3708      	adds	r7, #8
 80007ae:	46bd      	mov	sp, r7
 80007b0:	bd80      	pop	{r7, pc}
	...

080007b4 <HAL_GPIO_Init>:
  * @param  GPIO_Init pointer to a GPIO_InitTypeDef structure that contains
  *         the configuration information for the specified GPIO peripheral.
  * @retval None
  */
void HAL_GPIO_Init(GPIO_TypeDef  *GPIOx, GPIO_InitTypeDef *GPIO_Init)
{
 80007b4:	b480      	push	{r7}
 80007b6:	b087      	sub	sp, #28
 80007b8:	af00      	add	r7, sp, #0
 80007ba:	6078      	str	r0, [r7, #4]
 80007bc:	6039      	str	r1, [r7, #0]
  uint32_t position = 0x00u;
 80007be:	2300      	movs	r3, #0
 80007c0:	617b      	str	r3, [r7, #20]
  assert_param(IS_GPIO_PIN(GPIO_Init->Pin));
  assert_param(IS_GPIO_MODE(GPIO_Init->Mode));
  assert_param(IS_GPIO_PULL(GPIO_Init->Pull));

  /* Configure the port pins */
  while (((GPIO_Init->Pin) >> position) != 0x00u)
 80007c2:	e148      	b.n	8000a56 <HAL_GPIO_Init+0x2a2>
  {
    /* Get current io position */
    iocurrent = (GPIO_Init->Pin) & (1uL << position);
 80007c4:	683b      	ldr	r3, [r7, #0]
 80007c6:	681a      	ldr	r2, [r3, #0]
 80007c8:	2101      	movs	r1, #1
 80007ca:	697b      	ldr	r3, [r7, #20]
 80007cc:	fa01 f303 	lsl.w	r3, r1, r3
 80007d0:	4013      	ands	r3, r2
 80007d2:	60fb      	str	r3, [r7, #12]

    if (iocurrent != 0x00u)
 80007d4:	68fb      	ldr	r3, [r7, #12]
 80007d6:	2b00      	cmp	r3, #0
 80007d8:	f000 813a 	beq.w	8000a50 <HAL_GPIO_Init+0x29c>
    {
      /*--------------------- GPIO Mode Configuration ------------------------*/
      /* In case of Output or Alternate function mode selection */
      if((GPIO_Init->Mode == GPIO_MODE_OUTPUT_PP) || (GPIO_Init->Mode == GPIO_MODE_AF_PP) ||
 80007dc:	683b      	ldr	r3, [r7, #0]
 80007de:	685b      	ldr	r3, [r3, #4]
 80007e0:	2b01      	cmp	r3, #1
 80007e2:	d00b      	beq.n	80007fc <HAL_GPIO_Init+0x48>
 80007e4:	683b      	ldr	r3, [r7, #0]
 80007e6:	685b      	ldr	r3, [r3, #4]
 80007e8:	2b02      	cmp	r3, #2
 80007ea:	d007      	beq.n	80007fc <HAL_GPIO_Init+0x48>
         (GPIO_Init->Mode == GPIO_MODE_OUTPUT_OD) || (GPIO_Init->Mode == GPIO_MODE_AF_OD))
 80007ec:	683b      	ldr	r3, [r7, #0]
 80007ee:	685b      	ldr	r3, [r3, #4]
      if((GPIO_Init->Mode == GPIO_MODE_OUTPUT_PP) || (GPIO_Init->Mode == GPIO_MODE_AF_PP) ||
 80007f0:	2b11      	cmp	r3, #17
 80007f2:	d003      	beq.n	80007fc <HAL_GPIO_Init+0x48>
         (GPIO_Init->Mode == GPIO_MODE_OUTPUT_OD) || (GPIO_Init->Mode == GPIO_MODE_AF_OD))
 80007f4:	683b      	ldr	r3, [r7, #0]
 80007f6:	685b      	ldr	r3, [r3, #4]
 80007f8:	2b12      	cmp	r3, #18
 80007fa:	d130      	bne.n	800085e <HAL_GPIO_Init+0xaa>
      {
        /* Check the Speed parameter */
        assert_param(IS_GPIO_SPEED(GPIO_Init->Speed));
        /* Configure the IO Speed */
        temp = GPIOx->OSPEEDR;
 80007fc:	687b      	ldr	r3, [r7, #4]
 80007fe:	689b      	ldr	r3, [r3, #8]
 8000800:	613b      	str	r3, [r7, #16]
        temp &= ~(GPIO_OSPEEDR_OSPEED0 << (position * 2u));
 8000802:	697b      	ldr	r3, [r7, #20]
 8000804:	005b      	lsls	r3, r3, #1
 8000806:	2203      	movs	r2, #3
 8000808:	fa02 f303 	lsl.w	r3, r2, r3
 800080c:	43db      	mvns	r3, r3
 800080e:	693a      	ldr	r2, [r7, #16]
 8000810:	4013      	ands	r3, r2
 8000812:	613b      	str	r3, [r7, #16]
        temp |= (GPIO_Init->Speed << (position * 2u));
 8000814:	683b      	ldr	r3, [r7, #0]
 8000816:	68da      	ldr	r2, [r3, #12]
 8000818:	697b      	ldr	r3, [r7, #20]
 800081a:	005b      	lsls	r3, r3, #1
 800081c:	fa02 f303 	lsl.w	r3, r2, r3
 8000820:	693a      	ldr	r2, [r7, #16]
 8000822:	4313      	orrs	r3, r2
 8000824:	613b      	str	r3, [r7, #16]
        GPIOx->OSPEEDR = temp;
 8000826:	687b      	ldr	r3, [r7, #4]
 8000828:	693a      	ldr	r2, [r7, #16]
 800082a:	609a      	str	r2, [r3, #8]

        /* Configure the IO Output Type */
        temp = GPIOx->OTYPER;
 800082c:	687b      	ldr	r3, [r7, #4]
 800082e:	685b      	ldr	r3, [r3, #4]
 8000830:	613b      	str	r3, [r7, #16]
        temp &= ~(GPIO_OTYPER_OT0 << position) ;
 8000832:	2201      	movs	r2, #1
 8000834:	697b      	ldr	r3, [r7, #20]
 8000836:	fa02 f303 	lsl.w	r3, r2, r3
 800083a:	43db      	mvns	r3, r3
 800083c:	693a      	ldr	r2, [r7, #16]
 800083e:	4013      	ands	r3, r2
 8000840:	613b      	str	r3, [r7, #16]
        temp |= (((GPIO_Init->Mode & GPIO_OUTPUT_TYPE) >> 4u) << position);
 8000842:	683b      	ldr	r3, [r7, #0]
 8000844:	685b      	ldr	r3, [r3, #4]
 8000846:	091b      	lsrs	r3, r3, #4
 8000848:	f003 0201 	and.w	r2, r3, #1
 800084c:	697b      	ldr	r3, [r7, #20]
 800084e:	fa02 f303 	lsl.w	r3, r2, r3
 8000852:	693a      	ldr	r2, [r7, #16]
 8000854:	4313      	orrs	r3, r2
 8000856:	613b      	str	r3, [r7, #16]
        GPIOx->OTYPER = temp;
 8000858:	687b      	ldr	r3, [r7, #4]
 800085a:	693a      	ldr	r2, [r7, #16]
 800085c:	605a      	str	r2, [r3, #4]
      }

#endif /* STM32L471xx || STM32L475xx || STM32L476xx || STM32L485xx || STM32L486xx */

      /* Activate the Pull-up or Pull down resistor for the current IO */
      temp = GPIOx->PUPDR;
 800085e:	687b      	ldr	r3, [r7, #4]
 8000860:	68db      	ldr	r3, [r3, #12]
 8000862:	613b      	str	r3, [r7, #16]
      temp &= ~(GPIO_PUPDR_PUPD0 << (position * 2u));
 8000864:	697b      	ldr	r3, [r7, #20]
 8000866:	005b      	lsls	r3, r3, #1
 8000868:	2203      	movs	r2, #3
 800086a:	fa02 f303 	lsl.w	r3, r2, r3
 800086e:	43db      	mvns	r3, r3
 8000870:	693a      	ldr	r2, [r7, #16]
 8000872:	4013      	ands	r3, r2
 8000874:	613b      	str	r3, [r7, #16]
      temp |= ((GPIO_Init->Pull) << (position * 2u));
 8000876:	683b      	ldr	r3, [r7, #0]
 8000878:	689a      	ldr	r2, [r3, #8]
 800087a:	697b      	ldr	r3, [r7, #20]
 800087c:	005b      	lsls	r3, r3, #1
 800087e:	fa02 f303 	lsl.w	r3, r2, r3
 8000882:	693a      	ldr	r2, [r7, #16]
 8000884:	4313      	orrs	r3, r2
 8000886:	613b      	str	r3, [r7, #16]
      GPIOx->PUPDR = temp;
 8000888:	687b      	ldr	r3, [r7, #4]
 800088a:	693a      	ldr	r2, [r7, #16]
 800088c:	60da      	str	r2, [r3, #12]

      /* In case of Alternate function mode selection */
      if((GPIO_Init->Mode == GPIO_MODE_AF_PP) || (GPIO_Init->Mode == GPIO_MODE_AF_OD))
 800088e:	683b      	ldr	r3, [r7, #0]
 8000890:	685b      	ldr	r3, [r3, #4]
 8000892:	2b02      	cmp	r3, #2
 8000894:	d003      	beq.n	800089e <HAL_GPIO_Init+0xea>
 8000896:	683b      	ldr	r3, [r7, #0]
 8000898:	685b      	ldr	r3, [r3, #4]
 800089a:	2b12      	cmp	r3, #18
 800089c:	d123      	bne.n	80008e6 <HAL_GPIO_Init+0x132>
        /* Check the Alternate function parameters */
        assert_param(IS_GPIO_AF_INSTANCE(GPIOx));
        assert_param(IS_GPIO_AF(GPIO_Init->Alternate));

        /* Configure Alternate function mapped with the current IO */
        temp = GPIOx->AFR[position >> 3u];
 800089e:	697b      	ldr	r3, [r7, #20]
 80008a0:	08da      	lsrs	r2, r3, #3
 80008a2:	687b      	ldr	r3, [r7, #4]
 80008a4:	3208      	adds	r2, #8
 80008a6:	f853 3022 	ldr.w	r3, [r3, r2, lsl #2]
 80008aa:	613b      	str	r3, [r7, #16]
        temp &= ~(0xFu << ((position & 0x07u) * 4u));
 80008ac:	697b      	ldr	r3, [r7, #20]
 80008ae:	f003 0307 	and.w	r3, r3, #7
 80008b2:	009b      	lsls	r3, r3, #2
 80008b4:	220f      	movs	r2, #15
 80008b6:	fa02 f303 	lsl.w	r3, r2, r3
 80008ba:	43db      	mvns	r3, r3
 80008bc:	693a      	ldr	r2, [r7, #16]
 80008be:	4013      	ands	r3, r2
 80008c0:	613b      	str	r3, [r7, #16]
        temp |= ((GPIO_Init->Alternate) << ((position & 0x07u) * 4u));
 80008c2:	683b      	ldr	r3, [r7, #0]
 80008c4:	691a      	ldr	r2, [r3, #16]
 80008c6:	697b      	ldr	r3, [r7, #20]
 80008c8:	f003 0307 	and.w	r3, r3, #7
 80008cc:	009b      	lsls	r3, r3, #2
 80008ce:	fa02 f303 	lsl.w	r3, r2, r3
 80008d2:	693a      	ldr	r2, [r7, #16]
 80008d4:	4313      	orrs	r3, r2
 80008d6:	613b      	str	r3, [r7, #16]
        GPIOx->AFR[position >> 3u] = temp;
 80008d8:	697b      	ldr	r3, [r7, #20]
 80008da:	08da      	lsrs	r2, r3, #3
 80008dc:	687b      	ldr	r3, [r7, #4]
 80008de:	3208      	adds	r2, #8
 80008e0:	6939      	ldr	r1, [r7, #16]
 80008e2:	f843 1022 	str.w	r1, [r3, r2, lsl #2]
      }

      /* Configure IO Direction mode (Input, Output, Alternate or Analog) */
      temp = GPIOx->MODER;
 80008e6:	687b      	ldr	r3, [r7, #4]
 80008e8:	681b      	ldr	r3, [r3, #0]
 80008ea:	613b      	str	r3, [r7, #16]
      temp &= ~(GPIO_MODER_MODE0 << (position * 2u));
 80008ec:	697b      	ldr	r3, [r7, #20]
 80008ee:	005b      	lsls	r3, r3, #1
 80008f0:	2203      	movs	r2, #3
 80008f2:	fa02 f303 	lsl.w	r3, r2, r3
 80008f6:	43db      	mvns	r3, r3
 80008f8:	693a      	ldr	r2, [r7, #16]
 80008fa:	4013      	ands	r3, r2
 80008fc:	613b      	str	r3, [r7, #16]
      temp |= ((GPIO_Init->Mode & GPIO_MODE) << (position * 2u));
 80008fe:	683b      	ldr	r3, [r7, #0]
 8000900:	685b      	ldr	r3, [r3, #4]
 8000902:	f003 0203 	and.w	r2, r3, #3
 8000906:	697b      	ldr	r3, [r7, #20]
 8000908:	005b      	lsls	r3, r3, #1
 800090a:	fa02 f303 	lsl.w	r3, r2, r3
 800090e:	693a      	ldr	r2, [r7, #16]
 8000910:	4313      	orrs	r3, r2
 8000912:	613b      	str	r3, [r7, #16]
      GPIOx->MODER = temp;
 8000914:	687b      	ldr	r3, [r7, #4]
 8000916:	693a      	ldr	r2, [r7, #16]
 8000918:	601a      	str	r2, [r3, #0]

      /*--------------------- EXTI Mode Configuration ------------------------*/
      /* Configure the External Interrupt or event for the current IO */
      if((GPIO_Init->Mode & EXTI_MODE) == EXTI_MODE)
 800091a:	683b      	ldr	r3, [r7, #0]
 800091c:	685b      	ldr	r3, [r3, #4]
 800091e:	f003 5380 	and.w	r3, r3, #268435456	; 0x10000000
 8000922:	2b00      	cmp	r3, #0
 8000924:	f000 8094 	beq.w	8000a50 <HAL_GPIO_Init+0x29c>
      {
        /* Enable SYSCFG Clock */
        __HAL_RCC_SYSCFG_CLK_ENABLE();
 8000928:	4b52      	ldr	r3, [pc, #328]	; (8000a74 <HAL_GPIO_Init+0x2c0>)
 800092a:	6e1b      	ldr	r3, [r3, #96]	; 0x60
 800092c:	4a51      	ldr	r2, [pc, #324]	; (8000a74 <HAL_GPIO_Init+0x2c0>)
 800092e:	f043 0301 	orr.w	r3, r3, #1
 8000932:	6613      	str	r3, [r2, #96]	; 0x60
 8000934:	4b4f      	ldr	r3, [pc, #316]	; (8000a74 <HAL_GPIO_Init+0x2c0>)
 8000936:	6e1b      	ldr	r3, [r3, #96]	; 0x60
 8000938:	f003 0301 	and.w	r3, r3, #1
 800093c:	60bb      	str	r3, [r7, #8]
 800093e:	68bb      	ldr	r3, [r7, #8]

        temp = SYSCFG->EXTICR[position >> 2u];
 8000940:	4a4d      	ldr	r2, [pc, #308]	; (8000a78 <HAL_GPIO_Init+0x2c4>)
 8000942:	697b      	ldr	r3, [r7, #20]
 8000944:	089b      	lsrs	r3, r3, #2
 8000946:	3302      	adds	r3, #2
 8000948:	f852 3023 	ldr.w	r3, [r2, r3, lsl #2]
 800094c:	613b      	str	r3, [r7, #16]
        temp &= ~(0x0FuL << (4u * (position & 0x03u)));
 800094e:	697b      	ldr	r3, [r7, #20]
 8000950:	f003 0303 	and.w	r3, r3, #3
 8000954:	009b      	lsls	r3, r3, #2
 8000956:	220f      	movs	r2, #15
 8000958:	fa02 f303 	lsl.w	r3, r2, r3
 800095c:	43db      	mvns	r3, r3
 800095e:	693a      	ldr	r2, [r7, #16]
 8000960:	4013      	ands	r3, r2
 8000962:	613b      	str	r3, [r7, #16]
        temp |= (GPIO_GET_INDEX(GPIOx) << (4u * (position & 0x03u)));
 8000964:	687b      	ldr	r3, [r7, #4]
 8000966:	f1b3 4f90 	cmp.w	r3, #1207959552	; 0x48000000
 800096a:	d00d      	beq.n	8000988 <HAL_GPIO_Init+0x1d4>
 800096c:	687b      	ldr	r3, [r7, #4]
 800096e:	4a43      	ldr	r2, [pc, #268]	; (8000a7c <HAL_GPIO_Init+0x2c8>)
 8000970:	4293      	cmp	r3, r2
 8000972:	d007      	beq.n	8000984 <HAL_GPIO_Init+0x1d0>
 8000974:	687b      	ldr	r3, [r7, #4]
 8000976:	4a42      	ldr	r2, [pc, #264]	; (8000a80 <HAL_GPIO_Init+0x2cc>)
 8000978:	4293      	cmp	r3, r2
 800097a:	d101      	bne.n	8000980 <HAL_GPIO_Init+0x1cc>
 800097c:	2302      	movs	r3, #2
 800097e:	e004      	b.n	800098a <HAL_GPIO_Init+0x1d6>
 8000980:	2307      	movs	r3, #7
 8000982:	e002      	b.n	800098a <HAL_GPIO_Init+0x1d6>
 8000984:	2301      	movs	r3, #1
 8000986:	e000      	b.n	800098a <HAL_GPIO_Init+0x1d6>
 8000988:	2300      	movs	r3, #0
 800098a:	697a      	ldr	r2, [r7, #20]
 800098c:	f002 0203 	and.w	r2, r2, #3
 8000990:	0092      	lsls	r2, r2, #2
 8000992:	4093      	lsls	r3, r2
 8000994:	693a      	ldr	r2, [r7, #16]
 8000996:	4313      	orrs	r3, r2
 8000998:	613b      	str	r3, [r7, #16]
        SYSCFG->EXTICR[position >> 2u] = temp;
 800099a:	4937      	ldr	r1, [pc, #220]	; (8000a78 <HAL_GPIO_Init+0x2c4>)
 800099c:	697b      	ldr	r3, [r7, #20]
 800099e:	089b      	lsrs	r3, r3, #2
 80009a0:	3302      	adds	r3, #2
 80009a2:	693a      	ldr	r2, [r7, #16]
 80009a4:	f841 2023 	str.w	r2, [r1, r3, lsl #2]

        /* Clear EXTI line configuration */
        temp = EXTI->IMR1;
 80009a8:	4b36      	ldr	r3, [pc, #216]	; (8000a84 <HAL_GPIO_Init+0x2d0>)
 80009aa:	681b      	ldr	r3, [r3, #0]
 80009ac:	613b      	str	r3, [r7, #16]
        temp &= ~(iocurrent);
 80009ae:	68fb      	ldr	r3, [r7, #12]
 80009b0:	43db      	mvns	r3, r3
 80009b2:	693a      	ldr	r2, [r7, #16]
 80009b4:	4013      	ands	r3, r2
 80009b6:	613b      	str	r3, [r7, #16]
        if((GPIO_Init->Mode & GPIO_MODE_IT) == GPIO_MODE_IT)
 80009b8:	683b      	ldr	r3, [r7, #0]
 80009ba:	685b      	ldr	r3, [r3, #4]
 80009bc:	f403 3380 	and.w	r3, r3, #65536	; 0x10000
 80009c0:	2b00      	cmp	r3, #0
 80009c2:	d003      	beq.n	80009cc <HAL_GPIO_Init+0x218>
        {
          temp |= iocurrent;
 80009c4:	693a      	ldr	r2, [r7, #16]
 80009c6:	68fb      	ldr	r3, [r7, #12]
 80009c8:	4313      	orrs	r3, r2
 80009ca:	613b      	str	r3, [r7, #16]
        }
        EXTI->IMR1 = temp;
 80009cc:	4a2d      	ldr	r2, [pc, #180]	; (8000a84 <HAL_GPIO_Init+0x2d0>)
 80009ce:	693b      	ldr	r3, [r7, #16]
 80009d0:	6013      	str	r3, [r2, #0]

        temp = EXTI->EMR1;
 80009d2:	4b2c      	ldr	r3, [pc, #176]	; (8000a84 <HAL_GPIO_Init+0x2d0>)
 80009d4:	685b      	ldr	r3, [r3, #4]
 80009d6:	613b      	str	r3, [r7, #16]
        temp &= ~(iocurrent);
 80009d8:	68fb      	ldr	r3, [r7, #12]
 80009da:	43db      	mvns	r3, r3
 80009dc:	693a      	ldr	r2, [r7, #16]
 80009de:	4013      	ands	r3, r2
 80009e0:	613b      	str	r3, [r7, #16]
        if((GPIO_Init->Mode & GPIO_MODE_EVT) == GPIO_MODE_EVT)
 80009e2:	683b      	ldr	r3, [r7, #0]
 80009e4:	685b      	ldr	r3, [r3, #4]
 80009e6:	f403 3300 	and.w	r3, r3, #131072	; 0x20000
 80009ea:	2b00      	cmp	r3, #0
 80009ec:	d003      	beq.n	80009f6 <HAL_GPIO_Init+0x242>
        {
          temp |= iocurrent;
 80009ee:	693a      	ldr	r2, [r7, #16]
 80009f0:	68fb      	ldr	r3, [r7, #12]
 80009f2:	4313      	orrs	r3, r2
 80009f4:	613b      	str	r3, [r7, #16]
        }
        EXTI->EMR1 = temp;
 80009f6:	4a23      	ldr	r2, [pc, #140]	; (8000a84 <HAL_GPIO_Init+0x2d0>)
 80009f8:	693b      	ldr	r3, [r7, #16]
 80009fa:	6053      	str	r3, [r2, #4]

        /* Clear Rising Falling edge configuration */
        temp = EXTI->RTSR1;
 80009fc:	4b21      	ldr	r3, [pc, #132]	; (8000a84 <HAL_GPIO_Init+0x2d0>)
 80009fe:	689b      	ldr	r3, [r3, #8]
 8000a00:	613b      	str	r3, [r7, #16]
        temp &= ~(iocurrent);
 8000a02:	68fb      	ldr	r3, [r7, #12]
 8000a04:	43db      	mvns	r3, r3
 8000a06:	693a      	ldr	r2, [r7, #16]
 8000a08:	4013      	ands	r3, r2
 8000a0a:	613b      	str	r3, [r7, #16]
        if((GPIO_Init->Mode & RISING_EDGE) == RISING_EDGE)
 8000a0c:	683b      	ldr	r3, [r7, #0]
 8000a0e:	685b      	ldr	r3, [r3, #4]
 8000a10:	f403 1380 	and.w	r3, r3, #1048576	; 0x100000
 8000a14:	2b00      	cmp	r3, #0
 8000a16:	d003      	beq.n	8000a20 <HAL_GPIO_Init+0x26c>
        {
          temp |= iocurrent;
 8000a18:	693a      	ldr	r2, [r7, #16]
 8000a1a:	68fb      	ldr	r3, [r7, #12]
 8000a1c:	4313      	orrs	r3, r2
 8000a1e:	613b      	str	r3, [r7, #16]
        }
        EXTI->RTSR1 = temp;
 8000a20:	4a18      	ldr	r2, [pc, #96]	; (8000a84 <HAL_GPIO_Init+0x2d0>)
 8000a22:	693b      	ldr	r3, [r7, #16]
 8000a24:	6093      	str	r3, [r2, #8]

        temp = EXTI->FTSR1;
 8000a26:	4b17      	ldr	r3, [pc, #92]	; (8000a84 <HAL_GPIO_Init+0x2d0>)
 8000a28:	68db      	ldr	r3, [r3, #12]
 8000a2a:	613b      	str	r3, [r7, #16]
        temp &= ~(iocurrent);
 8000a2c:	68fb      	ldr	r3, [r7, #12]
 8000a2e:	43db      	mvns	r3, r3
 8000a30:	693a      	ldr	r2, [r7, #16]
 8000a32:	4013      	ands	r3, r2
 8000a34:	613b      	str	r3, [r7, #16]
        if((GPIO_Init->Mode & FALLING_EDGE) == FALLING_EDGE)
 8000a36:	683b      	ldr	r3, [r7, #0]
 8000a38:	685b      	ldr	r3, [r3, #4]
 8000a3a:	f403 1300 	and.w	r3, r3, #2097152	; 0x200000
 8000a3e:	2b00      	cmp	r3, #0
 8000a40:	d003      	beq.n	8000a4a <HAL_GPIO_Init+0x296>
        {
          temp |= iocurrent;
 8000a42:	693a      	ldr	r2, [r7, #16]
 8000a44:	68fb      	ldr	r3, [r7, #12]
 8000a46:	4313      	orrs	r3, r2
 8000a48:	613b      	str	r3, [r7, #16]
        }
        EXTI->FTSR1 = temp;
 8000a4a:	4a0e      	ldr	r2, [pc, #56]	; (8000a84 <HAL_GPIO_Init+0x2d0>)
 8000a4c:	693b      	ldr	r3, [r7, #16]
 8000a4e:	60d3      	str	r3, [r2, #12]
      }
    }

    position++;
 8000a50:	697b      	ldr	r3, [r7, #20]
 8000a52:	3301      	adds	r3, #1
 8000a54:	617b      	str	r3, [r7, #20]
  while (((GPIO_Init->Pin) >> position) != 0x00u)
 8000a56:	683b      	ldr	r3, [r7, #0]
 8000a58:	681a      	ldr	r2, [r3, #0]
 8000a5a:	697b      	ldr	r3, [r7, #20]
 8000a5c:	fa22 f303 	lsr.w	r3, r2, r3
 8000a60:	2b00      	cmp	r3, #0
 8000a62:	f47f aeaf 	bne.w	80007c4 <HAL_GPIO_Init+0x10>
  }
}
 8000a66:	bf00      	nop
 8000a68:	371c      	adds	r7, #28
 8000a6a:	46bd      	mov	sp, r7
 8000a6c:	f85d 7b04 	ldr.w	r7, [sp], #4
 8000a70:	4770      	bx	lr
 8000a72:	bf00      	nop
 8000a74:	40021000 	.word	0x40021000
 8000a78:	40010000 	.word	0x40010000
 8000a7c:	48000400 	.word	0x48000400
 8000a80:	48000800 	.word	0x48000800
 8000a84:	40010400 	.word	0x40010400

08000a88 <HAL_GPIO_WritePin>:
  *            @arg GPIO_PIN_RESET: to clear the port pin
  *            @arg GPIO_PIN_SET: to set the port pin
  * @retval None
  */
void HAL_GPIO_WritePin(GPIO_TypeDef* GPIOx, uint16_t GPIO_Pin, GPIO_PinState PinState)
{
 8000a88:	b480      	push	{r7}
 8000a8a:	b083      	sub	sp, #12
 8000a8c:	af00      	add	r7, sp, #0
 8000a8e:	6078      	str	r0, [r7, #4]
 8000a90:	460b      	mov	r3, r1
 8000a92:	807b      	strh	r3, [r7, #2]
 8000a94:	4613      	mov	r3, r2
 8000a96:	707b      	strb	r3, [r7, #1]
  /* Check the parameters */
  assert_param(IS_GPIO_PIN(GPIO_Pin));
  assert_param(IS_GPIO_PIN_ACTION(PinState));

  if(PinState != GPIO_PIN_RESET)
 8000a98:	787b      	ldrb	r3, [r7, #1]
 8000a9a:	2b00      	cmp	r3, #0
 8000a9c:	d003      	beq.n	8000aa6 <HAL_GPIO_WritePin+0x1e>
  {
    GPIOx->BSRR = (uint32_t)GPIO_Pin;
 8000a9e:	887a      	ldrh	r2, [r7, #2]
 8000aa0:	687b      	ldr	r3, [r7, #4]
 8000aa2:	619a      	str	r2, [r3, #24]
  }
  else
  {
    GPIOx->BRR = (uint32_t)GPIO_Pin;
  }
}
 8000aa4:	e002      	b.n	8000aac <HAL_GPIO_WritePin+0x24>
    GPIOx->BRR = (uint32_t)GPIO_Pin;
 8000aa6:	887a      	ldrh	r2, [r7, #2]
 8000aa8:	687b      	ldr	r3, [r7, #4]
 8000aaa:	629a      	str	r2, [r3, #40]	; 0x28
}
 8000aac:	bf00      	nop
 8000aae:	370c      	adds	r7, #12
 8000ab0:	46bd      	mov	sp, r7
 8000ab2:	f85d 7b04 	ldr.w	r7, [sp], #4
 8000ab6:	4770      	bx	lr

08000ab8 <HAL_PWREx_GetVoltageRange>:
  * @brief Return Voltage Scaling Range.
  * @retval VOS bit field (PWR_REGULATOR_VOLTAGE_SCALE1 or PWR_REGULATOR_VOLTAGE_SCALE2
  *         or PWR_REGULATOR_VOLTAGE_SCALE1_BOOST when applicable)
  */
uint32_t HAL_PWREx_GetVoltageRange(void)
{
 8000ab8:	b480      	push	{r7}
 8000aba:	af00      	add	r7, sp, #0
    else
    {
      return PWR_REGULATOR_VOLTAGE_SCALE1_BOOST;
    }
#else
  return  (PWR->CR1 & PWR_CR1_VOS);
 8000abc:	4b04      	ldr	r3, [pc, #16]	; (8000ad0 <HAL_PWREx_GetVoltageRange+0x18>)
 8000abe:	681b      	ldr	r3, [r3, #0]
 8000ac0:	f403 63c0 	and.w	r3, r3, #1536	; 0x600
#endif
}
 8000ac4:	4618      	mov	r0, r3
 8000ac6:	46bd      	mov	sp, r7
 8000ac8:	f85d 7b04 	ldr.w	r7, [sp], #4
 8000acc:	4770      	bx	lr
 8000ace:	bf00      	nop
 8000ad0:	40007000 	.word	0x40007000

08000ad4 <HAL_PWREx_ControlVoltageScaling>:
  *        cleared before returning the status. If the flag is not cleared within
  *        50 microseconds, HAL_TIMEOUT status is reported.
  * @retval HAL Status
  */
HAL_StatusTypeDef HAL_PWREx_ControlVoltageScaling(uint32_t VoltageScaling)
{
 8000ad4:	b480      	push	{r7}
 8000ad6:	b085      	sub	sp, #20
 8000ad8:	af00      	add	r7, sp, #0
 8000ada:	6078      	str	r0, [r7, #4]
  }

#else

  /* If Set Range 1 */
  if (VoltageScaling == PWR_REGULATOR_VOLTAGE_SCALE1)
 8000adc:	687b      	ldr	r3, [r7, #4]
 8000ade:	f5b3 7f00 	cmp.w	r3, #512	; 0x200
 8000ae2:	d130      	bne.n	8000b46 <HAL_PWREx_ControlVoltageScaling+0x72>
  {
    if (READ_BIT(PWR->CR1, PWR_CR1_VOS) != PWR_REGULATOR_VOLTAGE_SCALE1)
 8000ae4:	4b23      	ldr	r3, [pc, #140]	; (8000b74 <HAL_PWREx_ControlVoltageScaling+0xa0>)
 8000ae6:	681b      	ldr	r3, [r3, #0]
 8000ae8:	f403 63c0 	and.w	r3, r3, #1536	; 0x600
 8000aec:	f5b3 7f00 	cmp.w	r3, #512	; 0x200
 8000af0:	d038      	beq.n	8000b64 <HAL_PWREx_ControlVoltageScaling+0x90>
    {
      /* Set Range 1 */
      MODIFY_REG(PWR->CR1, PWR_CR1_VOS, PWR_REGULATOR_VOLTAGE_SCALE1);
 8000af2:	4b20      	ldr	r3, [pc, #128]	; (8000b74 <HAL_PWREx_ControlVoltageScaling+0xa0>)
 8000af4:	681b      	ldr	r3, [r3, #0]
 8000af6:	f423 63c0 	bic.w	r3, r3, #1536	; 0x600
 8000afa:	4a1e      	ldr	r2, [pc, #120]	; (8000b74 <HAL_PWREx_ControlVoltageScaling+0xa0>)
 8000afc:	f443 7300 	orr.w	r3, r3, #512	; 0x200
 8000b00:	6013      	str	r3, [r2, #0]

      /* Wait until VOSF is cleared */
      wait_loop_index = ((PWR_FLAG_SETTING_DELAY_US * SystemCoreClock) / 1000000U) + 1U;
 8000b02:	4b1d      	ldr	r3, [pc, #116]	; (8000b78 <HAL_PWREx_ControlVoltageScaling+0xa4>)
 8000b04:	681b      	ldr	r3, [r3, #0]
 8000b06:	2232      	movs	r2, #50	; 0x32
 8000b08:	fb02 f303 	mul.w	r3, r2, r3
 8000b0c:	4a1b      	ldr	r2, [pc, #108]	; (8000b7c <HAL_PWREx_ControlVoltageScaling+0xa8>)
 8000b0e:	fba2 2303 	umull	r2, r3, r2, r3
 8000b12:	0c9b      	lsrs	r3, r3, #18
 8000b14:	3301      	adds	r3, #1
 8000b16:	60fb      	str	r3, [r7, #12]
      while ((HAL_IS_BIT_SET(PWR->SR2, PWR_SR2_VOSF)) && (wait_loop_index != 0U))
 8000b18:	e002      	b.n	8000b20 <HAL_PWREx_ControlVoltageScaling+0x4c>
      {
        wait_loop_index--;
 8000b1a:	68fb      	ldr	r3, [r7, #12]
 8000b1c:	3b01      	subs	r3, #1
 8000b1e:	60fb      	str	r3, [r7, #12]
      while ((HAL_IS_BIT_SET(PWR->SR2, PWR_SR2_VOSF)) && (wait_loop_index != 0U))
 8000b20:	4b14      	ldr	r3, [pc, #80]	; (8000b74 <HAL_PWREx_ControlVoltageScaling+0xa0>)
 8000b22:	695b      	ldr	r3, [r3, #20]
 8000b24:	f403 6380 	and.w	r3, r3, #1024	; 0x400
 8000b28:	f5b3 6f80 	cmp.w	r3, #1024	; 0x400
 8000b2c:	d102      	bne.n	8000b34 <HAL_PWREx_ControlVoltageScaling+0x60>
 8000b2e:	68fb      	ldr	r3, [r7, #12]
 8000b30:	2b00      	cmp	r3, #0
 8000b32:	d1f2      	bne.n	8000b1a <HAL_PWREx_ControlVoltageScaling+0x46>
      }
      if (HAL_IS_BIT_SET(PWR->SR2, PWR_SR2_VOSF))
 8000b34:	4b0f      	ldr	r3, [pc, #60]	; (8000b74 <HAL_PWREx_ControlVoltageScaling+0xa0>)
 8000b36:	695b      	ldr	r3, [r3, #20]
 8000b38:	f403 6380 	and.w	r3, r3, #1024	; 0x400
 8000b3c:	f5b3 6f80 	cmp.w	r3, #1024	; 0x400
 8000b40:	d110      	bne.n	8000b64 <HAL_PWREx_ControlVoltageScaling+0x90>
      {
        return HAL_TIMEOUT;
 8000b42:	2303      	movs	r3, #3
 8000b44:	e00f      	b.n	8000b66 <HAL_PWREx_ControlVoltageScaling+0x92>
      }
    }
  }
  else
  {
    if (READ_BIT(PWR->CR1, PWR_CR1_VOS) != PWR_REGULATOR_VOLTAGE_SCALE2)
 8000b46:	4b0b      	ldr	r3, [pc, #44]	; (8000b74 <HAL_PWREx_ControlVoltageScaling+0xa0>)
 8000b48:	681b      	ldr	r3, [r3, #0]
 8000b4a:	f403 63c0 	and.w	r3, r3, #1536	; 0x600
 8000b4e:	f5b3 6f80 	cmp.w	r3, #1024	; 0x400
 8000b52:	d007      	beq.n	8000b64 <HAL_PWREx_ControlVoltageScaling+0x90>
    {
      /* Set Range 2 */
      MODIFY_REG(PWR->CR1, PWR_CR1_VOS, PWR_REGULATOR_VOLTAGE_SCALE2);
 8000b54:	4b07      	ldr	r3, [pc, #28]	; (8000b74 <HAL_PWREx_ControlVoltageScaling+0xa0>)
 8000b56:	681b      	ldr	r3, [r3, #0]
 8000b58:	f423 63c0 	bic.w	r3, r3, #1536	; 0x600
 8000b5c:	4a05      	ldr	r2, [pc, #20]	; (8000b74 <HAL_PWREx_ControlVoltageScaling+0xa0>)
 8000b5e:	f443 6380 	orr.w	r3, r3, #1024	; 0x400
 8000b62:	6013      	str	r3, [r2, #0]
      /* No need to wait for VOSF to be cleared for this transition */
    }
  }
#endif

  return HAL_OK;
 8000b64:	2300      	movs	r3, #0
}
 8000b66:	4618      	mov	r0, r3
 8000b68:	3714      	adds	r7, #20
 8000b6a:	46bd      	mov	sp, r7
 8000b6c:	f85d 7b04 	ldr.w	r7, [sp], #4
 8000b70:	4770      	bx	lr
 8000b72:	bf00      	nop
 8000b74:	40007000 	.word	0x40007000
 8000b78:	20000000 	.word	0x20000000
 8000b7c:	431bde83 	.word	0x431bde83

08000b80 <HAL_RCC_OscConfig>:
  *         supported by this macro. User should request a transition to HSE Off
  *         first and then HSE On or HSE Bypass.
  * @retval HAL status
  */
HAL_StatusTypeDef HAL_RCC_OscConfig(RCC_OscInitTypeDef  *RCC_OscInitStruct)
{
 8000b80:	b580      	push	{r7, lr}
 8000b82:	b088      	sub	sp, #32
 8000b84:	af00      	add	r7, sp, #0
 8000b86:	6078      	str	r0, [r7, #4]
  uint32_t tickstart;
  HAL_StatusTypeDef status;
  uint32_t sysclk_source, pll_config;

  /* Check Null pointer */
  if(RCC_OscInitStruct == NULL)
 8000b88:	687b      	ldr	r3, [r7, #4]
 8000b8a:	2b00      	cmp	r3, #0
 8000b8c:	d102      	bne.n	8000b94 <HAL_RCC_OscConfig+0x14>
  {
    return HAL_ERROR;
 8000b8e:	2301      	movs	r3, #1
 8000b90:	f000 bc11 	b.w	80013b6 <HAL_RCC_OscConfig+0x836>
  }

  /* Check the parameters */
  assert_param(IS_RCC_OSCILLATORTYPE(RCC_OscInitStruct->OscillatorType));

  sysclk_source = __HAL_RCC_GET_SYSCLK_SOURCE();
 8000b94:	4ba0      	ldr	r3, [pc, #640]	; (8000e18 <HAL_RCC_OscConfig+0x298>)
 8000b96:	689b      	ldr	r3, [r3, #8]
 8000b98:	f003 030c 	and.w	r3, r3, #12
 8000b9c:	61bb      	str	r3, [r7, #24]
  pll_config = __HAL_RCC_GET_PLL_OSCSOURCE();
 8000b9e:	4b9e      	ldr	r3, [pc, #632]	; (8000e18 <HAL_RCC_OscConfig+0x298>)
 8000ba0:	68db      	ldr	r3, [r3, #12]
 8000ba2:	f003 0303 	and.w	r3, r3, #3
 8000ba6:	617b      	str	r3, [r7, #20]

  /*----------------------------- MSI Configuration --------------------------*/
  if(((RCC_OscInitStruct->OscillatorType) & RCC_OSCILLATORTYPE_MSI) == RCC_OSCILLATORTYPE_MSI)
 8000ba8:	687b      	ldr	r3, [r7, #4]
 8000baa:	681b      	ldr	r3, [r3, #0]
 8000bac:	f003 0310 	and.w	r3, r3, #16
 8000bb0:	2b00      	cmp	r3, #0
 8000bb2:	f000 80e4 	beq.w	8000d7e <HAL_RCC_OscConfig+0x1fe>
    assert_param(IS_RCC_MSI(RCC_OscInitStruct->MSIState));
    assert_param(IS_RCC_MSICALIBRATION_VALUE(RCC_OscInitStruct->MSICalibrationValue));
    assert_param(IS_RCC_MSI_CLOCK_RANGE(RCC_OscInitStruct->MSIClockRange));

    /* Check if MSI is used as system clock or as PLL source when PLL is selected as system clock */
    if((sysclk_source == RCC_CFGR_SWS_MSI) ||
 8000bb6:	69bb      	ldr	r3, [r7, #24]
 8000bb8:	2b00      	cmp	r3, #0
 8000bba:	d007      	beq.n	8000bcc <HAL_RCC_OscConfig+0x4c>
 8000bbc:	69bb      	ldr	r3, [r7, #24]
 8000bbe:	2b0c      	cmp	r3, #12
 8000bc0:	f040 808b 	bne.w	8000cda <HAL_RCC_OscConfig+0x15a>
       ((sysclk_source == RCC_CFGR_SWS_PLL) && (pll_config == RCC_PLLSOURCE_MSI)))
 8000bc4:	697b      	ldr	r3, [r7, #20]
 8000bc6:	2b01      	cmp	r3, #1
 8000bc8:	f040 8087 	bne.w	8000cda <HAL_RCC_OscConfig+0x15a>
    {
      if((READ_BIT(RCC->CR, RCC_CR_MSIRDY) != 0U) && (RCC_OscInitStruct->MSIState == RCC_MSI_OFF))
 8000bcc:	4b92      	ldr	r3, [pc, #584]	; (8000e18 <HAL_RCC_OscConfig+0x298>)
 8000bce:	681b      	ldr	r3, [r3, #0]
 8000bd0:	f003 0302 	and.w	r3, r3, #2
 8000bd4:	2b00      	cmp	r3, #0
 8000bd6:	d005      	beq.n	8000be4 <HAL_RCC_OscConfig+0x64>
 8000bd8:	687b      	ldr	r3, [r7, #4]
 8000bda:	699b      	ldr	r3, [r3, #24]
 8000bdc:	2b00      	cmp	r3, #0
 8000bde:	d101      	bne.n	8000be4 <HAL_RCC_OscConfig+0x64>
      {
        return HAL_ERROR;
 8000be0:	2301      	movs	r3, #1
 8000be2:	e3e8      	b.n	80013b6 <HAL_RCC_OscConfig+0x836>
      else
      {
        /* To correctly read data from FLASH memory, the number of wait states (LATENCY)
           must be correctly programmed according to the frequency of the CPU clock
           (HCLK) and the supply voltage of the device. */
        if(RCC_OscInitStruct->MSIClockRange > __HAL_RCC_GET_MSI_RANGE())
 8000be4:	687b      	ldr	r3, [r7, #4]
 8000be6:	6a1a      	ldr	r2, [r3, #32]
 8000be8:	4b8b      	ldr	r3, [pc, #556]	; (8000e18 <HAL_RCC_OscConfig+0x298>)
 8000bea:	681b      	ldr	r3, [r3, #0]
 8000bec:	f003 0308 	and.w	r3, r3, #8
 8000bf0:	2b00      	cmp	r3, #0
 8000bf2:	d004      	beq.n	8000bfe <HAL_RCC_OscConfig+0x7e>
 8000bf4:	4b88      	ldr	r3, [pc, #544]	; (8000e18 <HAL_RCC_OscConfig+0x298>)
 8000bf6:	681b      	ldr	r3, [r3, #0]
 8000bf8:	f003 03f0 	and.w	r3, r3, #240	; 0xf0
 8000bfc:	e005      	b.n	8000c0a <HAL_RCC_OscConfig+0x8a>
 8000bfe:	4b86      	ldr	r3, [pc, #536]	; (8000e18 <HAL_RCC_OscConfig+0x298>)
 8000c00:	f8d3 3094 	ldr.w	r3, [r3, #148]	; 0x94
 8000c04:	091b      	lsrs	r3, r3, #4
 8000c06:	f003 03f0 	and.w	r3, r3, #240	; 0xf0
 8000c0a:	4293      	cmp	r3, r2
 8000c0c:	d223      	bcs.n	8000c56 <HAL_RCC_OscConfig+0xd6>
        {
          /* First increase number of wait states update if necessary */
          if(RCC_SetFlashLatencyFromMSIRange(RCC_OscInitStruct->MSIClockRange) != HAL_OK)
 8000c0e:	687b      	ldr	r3, [r7, #4]
 8000c10:	6a1b      	ldr	r3, [r3, #32]
 8000c12:	4618      	mov	r0, r3
 8000c14:	f000 fd40 	bl	8001698 <RCC_SetFlashLatencyFromMSIRange>
 8000c18:	4603      	mov	r3, r0
 8000c1a:	2b00      	cmp	r3, #0
 8000c1c:	d001      	beq.n	8000c22 <HAL_RCC_OscConfig+0xa2>
          {
            return HAL_ERROR;
 8000c1e:	2301      	movs	r3, #1
 8000c20:	e3c9      	b.n	80013b6 <HAL_RCC_OscConfig+0x836>
          }

          /* Selects the Multiple Speed oscillator (MSI) clock range .*/
          __HAL_RCC_MSI_RANGE_CONFIG(RCC_OscInitStruct->MSIClockRange);
 8000c22:	4b7d      	ldr	r3, [pc, #500]	; (8000e18 <HAL_RCC_OscConfig+0x298>)
 8000c24:	681b      	ldr	r3, [r3, #0]
 8000c26:	4a7c      	ldr	r2, [pc, #496]	; (8000e18 <HAL_RCC_OscConfig+0x298>)
 8000c28:	f043 0308 	orr.w	r3, r3, #8
 8000c2c:	6013      	str	r3, [r2, #0]
 8000c2e:	4b7a      	ldr	r3, [pc, #488]	; (8000e18 <HAL_RCC_OscConfig+0x298>)
 8000c30:	681b      	ldr	r3, [r3, #0]
 8000c32:	f023 02f0 	bic.w	r2, r3, #240	; 0xf0
 8000c36:	687b      	ldr	r3, [r7, #4]
 8000c38:	6a1b      	ldr	r3, [r3, #32]
 8000c3a:	4977      	ldr	r1, [pc, #476]	; (8000e18 <HAL_RCC_OscConfig+0x298>)
 8000c3c:	4313      	orrs	r3, r2
 8000c3e:	600b      	str	r3, [r1, #0]
          /* Adjusts the Multiple Speed oscillator (MSI) calibration value.*/
          __HAL_RCC_MSI_CALIBRATIONVALUE_ADJUST(RCC_OscInitStruct->MSICalibrationValue);
 8000c40:	4b75      	ldr	r3, [pc, #468]	; (8000e18 <HAL_RCC_OscConfig+0x298>)
 8000c42:	685b      	ldr	r3, [r3, #4]
 8000c44:	f423 427f 	bic.w	r2, r3, #65280	; 0xff00
 8000c48:	687b      	ldr	r3, [r7, #4]
 8000c4a:	69db      	ldr	r3, [r3, #28]
 8000c4c:	021b      	lsls	r3, r3, #8
 8000c4e:	4972      	ldr	r1, [pc, #456]	; (8000e18 <HAL_RCC_OscConfig+0x298>)
 8000c50:	4313      	orrs	r3, r2
 8000c52:	604b      	str	r3, [r1, #4]
 8000c54:	e025      	b.n	8000ca2 <HAL_RCC_OscConfig+0x122>
        }
        else
        {
          /* Else, keep current flash latency while decreasing applies */
          /* Selects the Multiple Speed oscillator (MSI) clock range .*/
          __HAL_RCC_MSI_RANGE_CONFIG(RCC_OscInitStruct->MSIClockRange);
 8000c56:	4b70      	ldr	r3, [pc, #448]	; (8000e18 <HAL_RCC_OscConfig+0x298>)
 8000c58:	681b      	ldr	r3, [r3, #0]
 8000c5a:	4a6f      	ldr	r2, [pc, #444]	; (8000e18 <HAL_RCC_OscConfig+0x298>)
 8000c5c:	f043 0308 	orr.w	r3, r3, #8
 8000c60:	6013      	str	r3, [r2, #0]
 8000c62:	4b6d      	ldr	r3, [pc, #436]	; (8000e18 <HAL_RCC_OscConfig+0x298>)
 8000c64:	681b      	ldr	r3, [r3, #0]
 8000c66:	f023 02f0 	bic.w	r2, r3, #240	; 0xf0
 8000c6a:	687b      	ldr	r3, [r7, #4]
 8000c6c:	6a1b      	ldr	r3, [r3, #32]
 8000c6e:	496a      	ldr	r1, [pc, #424]	; (8000e18 <HAL_RCC_OscConfig+0x298>)
 8000c70:	4313      	orrs	r3, r2
 8000c72:	600b      	str	r3, [r1, #0]
          /* Adjusts the Multiple Speed oscillator (MSI) calibration value.*/
          __HAL_RCC_MSI_CALIBRATIONVALUE_ADJUST(RCC_OscInitStruct->MSICalibrationValue);
 8000c74:	4b68      	ldr	r3, [pc, #416]	; (8000e18 <HAL_RCC_OscConfig+0x298>)
 8000c76:	685b      	ldr	r3, [r3, #4]
 8000c78:	f423 427f 	bic.w	r2, r3, #65280	; 0xff00
 8000c7c:	687b      	ldr	r3, [r7, #4]
 8000c7e:	69db      	ldr	r3, [r3, #28]
 8000c80:	021b      	lsls	r3, r3, #8
 8000c82:	4965      	ldr	r1, [pc, #404]	; (8000e18 <HAL_RCC_OscConfig+0x298>)
 8000c84:	4313      	orrs	r3, r2
 8000c86:	604b      	str	r3, [r1, #4]

          /* Decrease number of wait states update if necessary */
          /* Only possible when MSI is the System clock source  */
          if(sysclk_source == RCC_CFGR_SWS_MSI)
 8000c88:	69bb      	ldr	r3, [r7, #24]
 8000c8a:	2b00      	cmp	r3, #0
 8000c8c:	d109      	bne.n	8000ca2 <HAL_RCC_OscConfig+0x122>
          {
            if(RCC_SetFlashLatencyFromMSIRange(RCC_OscInitStruct->MSIClockRange) != HAL_OK)
 8000c8e:	687b      	ldr	r3, [r7, #4]
 8000c90:	6a1b      	ldr	r3, [r3, #32]
 8000c92:	4618      	mov	r0, r3
 8000c94:	f000 fd00 	bl	8001698 <RCC_SetFlashLatencyFromMSIRange>
 8000c98:	4603      	mov	r3, r0
 8000c9a:	2b00      	cmp	r3, #0
 8000c9c:	d001      	beq.n	8000ca2 <HAL_RCC_OscConfig+0x122>
            {
              return HAL_ERROR;
 8000c9e:	2301      	movs	r3, #1
 8000ca0:	e389      	b.n	80013b6 <HAL_RCC_OscConfig+0x836>
            }
          }
        }

        /* Update the SystemCoreClock global variable */
        SystemCoreClock = HAL_RCC_GetSysClockFreq() >> (AHBPrescTable[READ_BIT(RCC->CFGR, RCC_CFGR_HPRE) >> RCC_CFGR_HPRE_Pos] & 0x1FU);
 8000ca2:	f000 fc6f 	bl	8001584 <HAL_RCC_GetSysClockFreq>
 8000ca6:	4601      	mov	r1, r0
 8000ca8:	4b5b      	ldr	r3, [pc, #364]	; (8000e18 <HAL_RCC_OscConfig+0x298>)
 8000caa:	689b      	ldr	r3, [r3, #8]
 8000cac:	091b      	lsrs	r3, r3, #4
 8000cae:	f003 030f 	and.w	r3, r3, #15
 8000cb2:	4a5a      	ldr	r2, [pc, #360]	; (8000e1c <HAL_RCC_OscConfig+0x29c>)
 8000cb4:	5cd3      	ldrb	r3, [r2, r3]
 8000cb6:	f003 031f 	and.w	r3, r3, #31
 8000cba:	fa21 f303 	lsr.w	r3, r1, r3
 8000cbe:	4a58      	ldr	r2, [pc, #352]	; (8000e20 <HAL_RCC_OscConfig+0x2a0>)
 8000cc0:	6013      	str	r3, [r2, #0]

        /* Configure the source of time base considering new system clocks settings*/
        status = HAL_InitTick(uwTickPrio);
 8000cc2:	4b58      	ldr	r3, [pc, #352]	; (8000e24 <HAL_RCC_OscConfig+0x2a4>)
 8000cc4:	681b      	ldr	r3, [r3, #0]
 8000cc6:	4618      	mov	r0, r3
 8000cc8:	f7ff fc10 	bl	80004ec <HAL_InitTick>
 8000ccc:	4603      	mov	r3, r0
 8000cce:	73fb      	strb	r3, [r7, #15]
        if(status != HAL_OK)
 8000cd0:	7bfb      	ldrb	r3, [r7, #15]
 8000cd2:	2b00      	cmp	r3, #0
 8000cd4:	d052      	beq.n	8000d7c <HAL_RCC_OscConfig+0x1fc>
        {
          return status;
 8000cd6:	7bfb      	ldrb	r3, [r7, #15]
 8000cd8:	e36d      	b.n	80013b6 <HAL_RCC_OscConfig+0x836>
      }
    }
    else
    {
      /* Check the MSI State */
      if(RCC_OscInitStruct->MSIState != RCC_MSI_OFF)
 8000cda:	687b      	ldr	r3, [r7, #4]
 8000cdc:	699b      	ldr	r3, [r3, #24]
 8000cde:	2b00      	cmp	r3, #0
 8000ce0:	d032      	beq.n	8000d48 <HAL_RCC_OscConfig+0x1c8>
      {
        /* Enable the Internal High Speed oscillator (MSI). */
        __HAL_RCC_MSI_ENABLE();
 8000ce2:	4b4d      	ldr	r3, [pc, #308]	; (8000e18 <HAL_RCC_OscConfig+0x298>)
 8000ce4:	681b      	ldr	r3, [r3, #0]
 8000ce6:	4a4c      	ldr	r2, [pc, #304]	; (8000e18 <HAL_RCC_OscConfig+0x298>)
 8000ce8:	f043 0301 	orr.w	r3, r3, #1
 8000cec:	6013      	str	r3, [r2, #0]

        /* Get timeout */
        tickstart = HAL_GetTick();
 8000cee:	f7ff fc4d 	bl	800058c <HAL_GetTick>
 8000cf2:	6138      	str	r0, [r7, #16]

        /* Wait till MSI is ready */
        while(READ_BIT(RCC->CR, RCC_CR_MSIRDY) == 0U)
 8000cf4:	e008      	b.n	8000d08 <HAL_RCC_OscConfig+0x188>
        {
          if((HAL_GetTick() - tickstart) > MSI_TIMEOUT_VALUE)
 8000cf6:	f7ff fc49 	bl	800058c <HAL_GetTick>
 8000cfa:	4602      	mov	r2, r0
 8000cfc:	693b      	ldr	r3, [r7, #16]
 8000cfe:	1ad3      	subs	r3, r2, r3
 8000d00:	2b02      	cmp	r3, #2
 8000d02:	d901      	bls.n	8000d08 <HAL_RCC_OscConfig+0x188>
          {
            return HAL_TIMEOUT;
 8000d04:	2303      	movs	r3, #3
 8000d06:	e356      	b.n	80013b6 <HAL_RCC_OscConfig+0x836>
        while(READ_BIT(RCC->CR, RCC_CR_MSIRDY) == 0U)
 8000d08:	4b43      	ldr	r3, [pc, #268]	; (8000e18 <HAL_RCC_OscConfig+0x298>)
 8000d0a:	681b      	ldr	r3, [r3, #0]
 8000d0c:	f003 0302 	and.w	r3, r3, #2
 8000d10:	2b00      	cmp	r3, #0
 8000d12:	d0f0      	beq.n	8000cf6 <HAL_RCC_OscConfig+0x176>
          }
        }
         /* Selects the Multiple Speed oscillator (MSI) clock range .*/
        __HAL_RCC_MSI_RANGE_CONFIG(RCC_OscInitStruct->MSIClockRange);
 8000d14:	4b40      	ldr	r3, [pc, #256]	; (8000e18 <HAL_RCC_OscConfig+0x298>)
 8000d16:	681b      	ldr	r3, [r3, #0]
 8000d18:	4a3f      	ldr	r2, [pc, #252]	; (8000e18 <HAL_RCC_OscConfig+0x298>)
 8000d1a:	f043 0308 	orr.w	r3, r3, #8
 8000d1e:	6013      	str	r3, [r2, #0]
 8000d20:	4b3d      	ldr	r3, [pc, #244]	; (8000e18 <HAL_RCC_OscConfig+0x298>)
 8000d22:	681b      	ldr	r3, [r3, #0]
 8000d24:	f023 02f0 	bic.w	r2, r3, #240	; 0xf0
 8000d28:	687b      	ldr	r3, [r7, #4]
 8000d2a:	6a1b      	ldr	r3, [r3, #32]
 8000d2c:	493a      	ldr	r1, [pc, #232]	; (8000e18 <HAL_RCC_OscConfig+0x298>)
 8000d2e:	4313      	orrs	r3, r2
 8000d30:	600b      	str	r3, [r1, #0]
         /* Adjusts the Multiple Speed oscillator (MSI) calibration value.*/
        __HAL_RCC_MSI_CALIBRATIONVALUE_ADJUST(RCC_OscInitStruct->MSICalibrationValue);
 8000d32:	4b39      	ldr	r3, [pc, #228]	; (8000e18 <HAL_RCC_OscConfig+0x298>)
 8000d34:	685b      	ldr	r3, [r3, #4]
 8000d36:	f423 427f 	bic.w	r2, r3, #65280	; 0xff00
 8000d3a:	687b      	ldr	r3, [r7, #4]
 8000d3c:	69db      	ldr	r3, [r3, #28]
 8000d3e:	021b      	lsls	r3, r3, #8
 8000d40:	4935      	ldr	r1, [pc, #212]	; (8000e18 <HAL_RCC_OscConfig+0x298>)
 8000d42:	4313      	orrs	r3, r2
 8000d44:	604b      	str	r3, [r1, #4]
 8000d46:	e01a      	b.n	8000d7e <HAL_RCC_OscConfig+0x1fe>

      }
      else
      {
        /* Disable the Internal High Speed oscillator (MSI). */
        __HAL_RCC_MSI_DISABLE();
 8000d48:	4b33      	ldr	r3, [pc, #204]	; (8000e18 <HAL_RCC_OscConfig+0x298>)
 8000d4a:	681b      	ldr	r3, [r3, #0]
 8000d4c:	4a32      	ldr	r2, [pc, #200]	; (8000e18 <HAL_RCC_OscConfig+0x298>)
 8000d4e:	f023 0301 	bic.w	r3, r3, #1
 8000d52:	6013      	str	r3, [r2, #0]

        /* Get timeout */
        tickstart = HAL_GetTick();
 8000d54:	f7ff fc1a 	bl	800058c <HAL_GetTick>
 8000d58:	6138      	str	r0, [r7, #16]

        /* Wait till MSI is ready */
        while(READ_BIT(RCC->CR, RCC_CR_MSIRDY) != 0U)
 8000d5a:	e008      	b.n	8000d6e <HAL_RCC_OscConfig+0x1ee>
        {
          if((HAL_GetTick() - tickstart) > MSI_TIMEOUT_VALUE)
 8000d5c:	f7ff fc16 	bl	800058c <HAL_GetTick>
 8000d60:	4602      	mov	r2, r0
 8000d62:	693b      	ldr	r3, [r7, #16]
 8000d64:	1ad3      	subs	r3, r2, r3
 8000d66:	2b02      	cmp	r3, #2
 8000d68:	d901      	bls.n	8000d6e <HAL_RCC_OscConfig+0x1ee>
          {
            return HAL_TIMEOUT;
 8000d6a:	2303      	movs	r3, #3
 8000d6c:	e323      	b.n	80013b6 <HAL_RCC_OscConfig+0x836>
        while(READ_BIT(RCC->CR, RCC_CR_MSIRDY) != 0U)
 8000d6e:	4b2a      	ldr	r3, [pc, #168]	; (8000e18 <HAL_RCC_OscConfig+0x298>)
 8000d70:	681b      	ldr	r3, [r3, #0]
 8000d72:	f003 0302 	and.w	r3, r3, #2
 8000d76:	2b00      	cmp	r3, #0
 8000d78:	d1f0      	bne.n	8000d5c <HAL_RCC_OscConfig+0x1dc>
 8000d7a:	e000      	b.n	8000d7e <HAL_RCC_OscConfig+0x1fe>
      if((READ_BIT(RCC->CR, RCC_CR_MSIRDY) != 0U) && (RCC_OscInitStruct->MSIState == RCC_MSI_OFF))
 8000d7c:	bf00      	nop
        }
      }
    }
  }
  /*------------------------------- HSE Configuration ------------------------*/
  if(((RCC_OscInitStruct->OscillatorType) & RCC_OSCILLATORTYPE_HSE) == RCC_OSCILLATORTYPE_HSE)
 8000d7e:	687b      	ldr	r3, [r7, #4]
 8000d80:	681b      	ldr	r3, [r3, #0]
 8000d82:	f003 0301 	and.w	r3, r3, #1
 8000d86:	2b00      	cmp	r3, #0
 8000d88:	d073      	beq.n	8000e72 <HAL_RCC_OscConfig+0x2f2>
  {
    /* Check the parameters */
    assert_param(IS_RCC_HSE(RCC_OscInitStruct->HSEState));

    /* When the HSE is used as system clock or clock source for PLL in these cases it is not allowed to be disabled */
    if((sysclk_source == RCC_CFGR_SWS_HSE) ||
 8000d8a:	69bb      	ldr	r3, [r7, #24]
 8000d8c:	2b08      	cmp	r3, #8
 8000d8e:	d005      	beq.n	8000d9c <HAL_RCC_OscConfig+0x21c>
 8000d90:	69bb      	ldr	r3, [r7, #24]
 8000d92:	2b0c      	cmp	r3, #12
 8000d94:	d10e      	bne.n	8000db4 <HAL_RCC_OscConfig+0x234>
       ((sysclk_source == RCC_CFGR_SWS_PLL) && (pll_config == RCC_PLLSOURCE_HSE)))
 8000d96:	697b      	ldr	r3, [r7, #20]
 8000d98:	2b03      	cmp	r3, #3
 8000d9a:	d10b      	bne.n	8000db4 <HAL_RCC_OscConfig+0x234>
    {
      if((READ_BIT(RCC->CR, RCC_CR_HSERDY) != 0U) && (RCC_OscInitStruct->HSEState == RCC_HSE_OFF))
 8000d9c:	4b1e      	ldr	r3, [pc, #120]	; (8000e18 <HAL_RCC_OscConfig+0x298>)
 8000d9e:	681b      	ldr	r3, [r3, #0]
 8000da0:	f403 3300 	and.w	r3, r3, #131072	; 0x20000
 8000da4:	2b00      	cmp	r3, #0
 8000da6:	d063      	beq.n	8000e70 <HAL_RCC_OscConfig+0x2f0>
 8000da8:	687b      	ldr	r3, [r7, #4]
 8000daa:	685b      	ldr	r3, [r3, #4]
 8000dac:	2b00      	cmp	r3, #0
 8000dae:	d15f      	bne.n	8000e70 <HAL_RCC_OscConfig+0x2f0>
      {
        return HAL_ERROR;
 8000db0:	2301      	movs	r3, #1
 8000db2:	e300      	b.n	80013b6 <HAL_RCC_OscConfig+0x836>
      }
    }
    else
    {
      /* Set the new HSE configuration ---------------------------------------*/
      __HAL_RCC_HSE_CONFIG(RCC_OscInitStruct->HSEState);
 8000db4:	687b      	ldr	r3, [r7, #4]
 8000db6:	685b      	ldr	r3, [r3, #4]
 8000db8:	f5b3 3f80 	cmp.w	r3, #65536	; 0x10000
 8000dbc:	d106      	bne.n	8000dcc <HAL_RCC_OscConfig+0x24c>
 8000dbe:	4b16      	ldr	r3, [pc, #88]	; (8000e18 <HAL_RCC_OscConfig+0x298>)
 8000dc0:	681b      	ldr	r3, [r3, #0]
 8000dc2:	4a15      	ldr	r2, [pc, #84]	; (8000e18 <HAL_RCC_OscConfig+0x298>)
 8000dc4:	f443 3380 	orr.w	r3, r3, #65536	; 0x10000
 8000dc8:	6013      	str	r3, [r2, #0]
 8000dca:	e01d      	b.n	8000e08 <HAL_RCC_OscConfig+0x288>
 8000dcc:	687b      	ldr	r3, [r7, #4]
 8000dce:	685b      	ldr	r3, [r3, #4]
 8000dd0:	f5b3 2fa0 	cmp.w	r3, #327680	; 0x50000
 8000dd4:	d10c      	bne.n	8000df0 <HAL_RCC_OscConfig+0x270>
 8000dd6:	4b10      	ldr	r3, [pc, #64]	; (8000e18 <HAL_RCC_OscConfig+0x298>)
 8000dd8:	681b      	ldr	r3, [r3, #0]
 8000dda:	4a0f      	ldr	r2, [pc, #60]	; (8000e18 <HAL_RCC_OscConfig+0x298>)
 8000ddc:	f443 2380 	orr.w	r3, r3, #262144	; 0x40000
 8000de0:	6013      	str	r3, [r2, #0]
 8000de2:	4b0d      	ldr	r3, [pc, #52]	; (8000e18 <HAL_RCC_OscConfig+0x298>)
 8000de4:	681b      	ldr	r3, [r3, #0]
 8000de6:	4a0c      	ldr	r2, [pc, #48]	; (8000e18 <HAL_RCC_OscConfig+0x298>)
 8000de8:	f443 3380 	orr.w	r3, r3, #65536	; 0x10000
 8000dec:	6013      	str	r3, [r2, #0]
 8000dee:	e00b      	b.n	8000e08 <HAL_RCC_OscConfig+0x288>
 8000df0:	4b09      	ldr	r3, [pc, #36]	; (8000e18 <HAL_RCC_OscConfig+0x298>)
 8000df2:	681b      	ldr	r3, [r3, #0]
 8000df4:	4a08      	ldr	r2, [pc, #32]	; (8000e18 <HAL_RCC_OscConfig+0x298>)
 8000df6:	f423 3380 	bic.w	r3, r3, #65536	; 0x10000
 8000dfa:	6013      	str	r3, [r2, #0]
 8000dfc:	4b06      	ldr	r3, [pc, #24]	; (8000e18 <HAL_RCC_OscConfig+0x298>)
 8000dfe:	681b      	ldr	r3, [r3, #0]
 8000e00:	4a05      	ldr	r2, [pc, #20]	; (8000e18 <HAL_RCC_OscConfig+0x298>)
 8000e02:	f423 2380 	bic.w	r3, r3, #262144	; 0x40000
 8000e06:	6013      	str	r3, [r2, #0]

      /* Check the HSE State */
      if(RCC_OscInitStruct->HSEState != RCC_HSE_OFF)
 8000e08:	687b      	ldr	r3, [r7, #4]
 8000e0a:	685b      	ldr	r3, [r3, #4]
 8000e0c:	2b00      	cmp	r3, #0
 8000e0e:	d01b      	beq.n	8000e48 <HAL_RCC_OscConfig+0x2c8>
      {
        /* Get Start Tick*/
        tickstart = HAL_GetTick();
 8000e10:	f7ff fbbc 	bl	800058c <HAL_GetTick>
 8000e14:	6138      	str	r0, [r7, #16]

        /* Wait till HSE is ready */
        while(READ_BIT(RCC->CR, RCC_CR_HSERDY) == 0U)
 8000e16:	e010      	b.n	8000e3a <HAL_RCC_OscConfig+0x2ba>
 8000e18:	40021000 	.word	0x40021000
 8000e1c:	080017c8 	.word	0x080017c8
 8000e20:	20000000 	.word	0x20000000
 8000e24:	20000004 	.word	0x20000004
        {
          if((HAL_GetTick() - tickstart) > HSE_TIMEOUT_VALUE)
 8000e28:	f7ff fbb0 	bl	800058c <HAL_GetTick>
 8000e2c:	4602      	mov	r2, r0
 8000e2e:	693b      	ldr	r3, [r7, #16]
 8000e30:	1ad3      	subs	r3, r2, r3
 8000e32:	2b64      	cmp	r3, #100	; 0x64
 8000e34:	d901      	bls.n	8000e3a <HAL_RCC_OscConfig+0x2ba>
          {
            return HAL_TIMEOUT;
 8000e36:	2303      	movs	r3, #3
 8000e38:	e2bd      	b.n	80013b6 <HAL_RCC_OscConfig+0x836>
        while(READ_BIT(RCC->CR, RCC_CR_HSERDY) == 0U)
 8000e3a:	4baf      	ldr	r3, [pc, #700]	; (80010f8 <HAL_RCC_OscConfig+0x578>)
 8000e3c:	681b      	ldr	r3, [r3, #0]
 8000e3e:	f403 3300 	and.w	r3, r3, #131072	; 0x20000
 8000e42:	2b00      	cmp	r3, #0
 8000e44:	d0f0      	beq.n	8000e28 <HAL_RCC_OscConfig+0x2a8>
 8000e46:	e014      	b.n	8000e72 <HAL_RCC_OscConfig+0x2f2>
        }
      }
      else
      {
        /* Get Start Tick*/
        tickstart = HAL_GetTick();
 8000e48:	f7ff fba0 	bl	800058c <HAL_GetTick>
 8000e4c:	6138      	str	r0, [r7, #16]

        /* Wait till HSE is disabled */
        while(READ_BIT(RCC->CR, RCC_CR_HSERDY) != 0U)
 8000e4e:	e008      	b.n	8000e62 <HAL_RCC_OscConfig+0x2e2>
        {
          if((HAL_GetTick() - tickstart) > HSE_TIMEOUT_VALUE)
 8000e50:	f7ff fb9c 	bl	800058c <HAL_GetTick>
 8000e54:	4602      	mov	r2, r0
 8000e56:	693b      	ldr	r3, [r7, #16]
 8000e58:	1ad3      	subs	r3, r2, r3
 8000e5a:	2b64      	cmp	r3, #100	; 0x64
 8000e5c:	d901      	bls.n	8000e62 <HAL_RCC_OscConfig+0x2e2>
          {
            return HAL_TIMEOUT;
 8000e5e:	2303      	movs	r3, #3
 8000e60:	e2a9      	b.n	80013b6 <HAL_RCC_OscConfig+0x836>
        while(READ_BIT(RCC->CR, RCC_CR_HSERDY) != 0U)
 8000e62:	4ba5      	ldr	r3, [pc, #660]	; (80010f8 <HAL_RCC_OscConfig+0x578>)
 8000e64:	681b      	ldr	r3, [r3, #0]
 8000e66:	f403 3300 	and.w	r3, r3, #131072	; 0x20000
 8000e6a:	2b00      	cmp	r3, #0
 8000e6c:	d1f0      	bne.n	8000e50 <HAL_RCC_OscConfig+0x2d0>
 8000e6e:	e000      	b.n	8000e72 <HAL_RCC_OscConfig+0x2f2>
      if((READ_BIT(RCC->CR, RCC_CR_HSERDY) != 0U) && (RCC_OscInitStruct->HSEState == RCC_HSE_OFF))
 8000e70:	bf00      	nop
        }
      }
    }
  }
  /*----------------------------- HSI Configuration --------------------------*/
  if(((RCC_OscInitStruct->OscillatorType) & RCC_OSCILLATORTYPE_HSI) == RCC_OSCILLATORTYPE_HSI)
 8000e72:	687b      	ldr	r3, [r7, #4]
 8000e74:	681b      	ldr	r3, [r3, #0]
 8000e76:	f003 0302 	and.w	r3, r3, #2
 8000e7a:	2b00      	cmp	r3, #0
 8000e7c:	d060      	beq.n	8000f40 <HAL_RCC_OscConfig+0x3c0>
    /* Check the parameters */
    assert_param(IS_RCC_HSI(RCC_OscInitStruct->HSIState));
    assert_param(IS_RCC_HSI_CALIBRATION_VALUE(RCC_OscInitStruct->HSICalibrationValue));

    /* Check if HSI is used as system clock or as PLL source when PLL is selected as system clock */
    if((sysclk_source == RCC_CFGR_SWS_HSI) ||
 8000e7e:	69bb      	ldr	r3, [r7, #24]
 8000e80:	2b04      	cmp	r3, #4
 8000e82:	d005      	beq.n	8000e90 <HAL_RCC_OscConfig+0x310>
 8000e84:	69bb      	ldr	r3, [r7, #24]
 8000e86:	2b0c      	cmp	r3, #12
 8000e88:	d119      	bne.n	8000ebe <HAL_RCC_OscConfig+0x33e>
       ((sysclk_source == RCC_CFGR_SWS_PLL) && (pll_config == RCC_PLLSOURCE_HSI)))
 8000e8a:	697b      	ldr	r3, [r7, #20]
 8000e8c:	2b02      	cmp	r3, #2
 8000e8e:	d116      	bne.n	8000ebe <HAL_RCC_OscConfig+0x33e>
    {
      /* When HSI is used as system clock it will not be disabled */
      if((READ_BIT(RCC->CR, RCC_CR_HSIRDY) != 0U) && (RCC_OscInitStruct->HSIState == RCC_HSI_OFF))
 8000e90:	4b99      	ldr	r3, [pc, #612]	; (80010f8 <HAL_RCC_OscConfig+0x578>)
 8000e92:	681b      	ldr	r3, [r3, #0]
 8000e94:	f403 6380 	and.w	r3, r3, #1024	; 0x400
 8000e98:	2b00      	cmp	r3, #0
 8000e9a:	d005      	beq.n	8000ea8 <HAL_RCC_OscConfig+0x328>
 8000e9c:	687b      	ldr	r3, [r7, #4]
 8000e9e:	68db      	ldr	r3, [r3, #12]
 8000ea0:	2b00      	cmp	r3, #0
 8000ea2:	d101      	bne.n	8000ea8 <HAL_RCC_OscConfig+0x328>
      {
        return HAL_ERROR;
 8000ea4:	2301      	movs	r3, #1
 8000ea6:	e286      	b.n	80013b6 <HAL_RCC_OscConfig+0x836>
      }
      /* Otherwise, just the calibration is allowed */
      else
      {
        /* Adjusts the Internal High Speed oscillator (HSI) calibration value.*/
        __HAL_RCC_HSI_CALIBRATIONVALUE_ADJUST(RCC_OscInitStruct->HSICalibrationValue);
 8000ea8:	4b93      	ldr	r3, [pc, #588]	; (80010f8 <HAL_RCC_OscConfig+0x578>)
 8000eaa:	685b      	ldr	r3, [r3, #4]
 8000eac:	f023 42fe 	bic.w	r2, r3, #2130706432	; 0x7f000000
 8000eb0:	687b      	ldr	r3, [r7, #4]
 8000eb2:	691b      	ldr	r3, [r3, #16]
 8000eb4:	061b      	lsls	r3, r3, #24
 8000eb6:	4990      	ldr	r1, [pc, #576]	; (80010f8 <HAL_RCC_OscConfig+0x578>)
 8000eb8:	4313      	orrs	r3, r2
 8000eba:	604b      	str	r3, [r1, #4]
      if((READ_BIT(RCC->CR, RCC_CR_HSIRDY) != 0U) && (RCC_OscInitStruct->HSIState == RCC_HSI_OFF))
 8000ebc:	e040      	b.n	8000f40 <HAL_RCC_OscConfig+0x3c0>
      }
    }
    else
    {
      /* Check the HSI State */
      if(RCC_OscInitStruct->HSIState != RCC_HSI_OFF)
 8000ebe:	687b      	ldr	r3, [r7, #4]
 8000ec0:	68db      	ldr	r3, [r3, #12]
 8000ec2:	2b00      	cmp	r3, #0
 8000ec4:	d023      	beq.n	8000f0e <HAL_RCC_OscConfig+0x38e>
      {
        /* Enable the Internal High Speed oscillator (HSI). */
        __HAL_RCC_HSI_ENABLE();
 8000ec6:	4b8c      	ldr	r3, [pc, #560]	; (80010f8 <HAL_RCC_OscConfig+0x578>)
 8000ec8:	681b      	ldr	r3, [r3, #0]
 8000eca:	4a8b      	ldr	r2, [pc, #556]	; (80010f8 <HAL_RCC_OscConfig+0x578>)
 8000ecc:	f443 7380 	orr.w	r3, r3, #256	; 0x100
 8000ed0:	6013      	str	r3, [r2, #0]

        /* Get Start Tick*/
        tickstart = HAL_GetTick();
 8000ed2:	f7ff fb5b 	bl	800058c <HAL_GetTick>
 8000ed6:	6138      	str	r0, [r7, #16]

        /* Wait till HSI is ready */
        while(READ_BIT(RCC->CR, RCC_CR_HSIRDY) == 0U)
 8000ed8:	e008      	b.n	8000eec <HAL_RCC_OscConfig+0x36c>
        {
          if((HAL_GetTick() - tickstart) > HSI_TIMEOUT_VALUE)
 8000eda:	f7ff fb57 	bl	800058c <HAL_GetTick>
 8000ede:	4602      	mov	r2, r0
 8000ee0:	693b      	ldr	r3, [r7, #16]
 8000ee2:	1ad3      	subs	r3, r2, r3
 8000ee4:	2b02      	cmp	r3, #2
 8000ee6:	d901      	bls.n	8000eec <HAL_RCC_OscConfig+0x36c>
          {
            return HAL_TIMEOUT;
 8000ee8:	2303      	movs	r3, #3
 8000eea:	e264      	b.n	80013b6 <HAL_RCC_OscConfig+0x836>
        while(READ_BIT(RCC->CR, RCC_CR_HSIRDY) == 0U)
 8000eec:	4b82      	ldr	r3, [pc, #520]	; (80010f8 <HAL_RCC_OscConfig+0x578>)
 8000eee:	681b      	ldr	r3, [r3, #0]
 8000ef0:	f403 6380 	and.w	r3, r3, #1024	; 0x400
 8000ef4:	2b00      	cmp	r3, #0
 8000ef6:	d0f0      	beq.n	8000eda <HAL_RCC_OscConfig+0x35a>
          }
        }

        /* Adjusts the Internal High Speed oscillator (HSI) calibration value.*/
        __HAL_RCC_HSI_CALIBRATIONVALUE_ADJUST(RCC_OscInitStruct->HSICalibrationValue);
 8000ef8:	4b7f      	ldr	r3, [pc, #508]	; (80010f8 <HAL_RCC_OscConfig+0x578>)
 8000efa:	685b      	ldr	r3, [r3, #4]
 8000efc:	f023 42fe 	bic.w	r2, r3, #2130706432	; 0x7f000000
 8000f00:	687b      	ldr	r3, [r7, #4]
 8000f02:	691b      	ldr	r3, [r3, #16]
 8000f04:	061b      	lsls	r3, r3, #24
 8000f06:	497c      	ldr	r1, [pc, #496]	; (80010f8 <HAL_RCC_OscConfig+0x578>)
 8000f08:	4313      	orrs	r3, r2
 8000f0a:	604b      	str	r3, [r1, #4]
 8000f0c:	e018      	b.n	8000f40 <HAL_RCC_OscConfig+0x3c0>
      }
      else
      {
        /* Disable the Internal High Speed oscillator (HSI). */
        __HAL_RCC_HSI_DISABLE();
 8000f0e:	4b7a      	ldr	r3, [pc, #488]	; (80010f8 <HAL_RCC_OscConfig+0x578>)
 8000f10:	681b      	ldr	r3, [r3, #0]
 8000f12:	4a79      	ldr	r2, [pc, #484]	; (80010f8 <HAL_RCC_OscConfig+0x578>)
 8000f14:	f423 7380 	bic.w	r3, r3, #256	; 0x100
 8000f18:	6013      	str	r3, [r2, #0]

        /* Get Start Tick*/
        tickstart = HAL_GetTick();
 8000f1a:	f7ff fb37 	bl	800058c <HAL_GetTick>
 8000f1e:	6138      	str	r0, [r7, #16]

        /* Wait till HSI is disabled */
        while(READ_BIT(RCC->CR, RCC_CR_HSIRDY) != 0U)
 8000f20:	e008      	b.n	8000f34 <HAL_RCC_OscConfig+0x3b4>
        {
          if((HAL_GetTick() - tickstart) > HSI_TIMEOUT_VALUE)
 8000f22:	f7ff fb33 	bl	800058c <HAL_GetTick>
 8000f26:	4602      	mov	r2, r0
 8000f28:	693b      	ldr	r3, [r7, #16]
 8000f2a:	1ad3      	subs	r3, r2, r3
 8000f2c:	2b02      	cmp	r3, #2
 8000f2e:	d901      	bls.n	8000f34 <HAL_RCC_OscConfig+0x3b4>
          {
            return HAL_TIMEOUT;
 8000f30:	2303      	movs	r3, #3
 8000f32:	e240      	b.n	80013b6 <HAL_RCC_OscConfig+0x836>
        while(READ_BIT(RCC->CR, RCC_CR_HSIRDY) != 0U)
 8000f34:	4b70      	ldr	r3, [pc, #448]	; (80010f8 <HAL_RCC_OscConfig+0x578>)
 8000f36:	681b      	ldr	r3, [r3, #0]
 8000f38:	f403 6380 	and.w	r3, r3, #1024	; 0x400
 8000f3c:	2b00      	cmp	r3, #0
 8000f3e:	d1f0      	bne.n	8000f22 <HAL_RCC_OscConfig+0x3a2>
        }
      }
    }
  }
  /*------------------------------ LSI Configuration -------------------------*/
  if(((RCC_OscInitStruct->OscillatorType) & RCC_OSCILLATORTYPE_LSI) == RCC_OSCILLATORTYPE_LSI)
 8000f40:	687b      	ldr	r3, [r7, #4]
 8000f42:	681b      	ldr	r3, [r3, #0]
 8000f44:	f003 0308 	and.w	r3, r3, #8
 8000f48:	2b00      	cmp	r3, #0
 8000f4a:	d03c      	beq.n	8000fc6 <HAL_RCC_OscConfig+0x446>
  {
    /* Check the parameters */
    assert_param(IS_RCC_LSI(RCC_OscInitStruct->LSIState));

    /* Check the LSI State */
    if(RCC_OscInitStruct->LSIState != RCC_LSI_OFF)
 8000f4c:	687b      	ldr	r3, [r7, #4]
 8000f4e:	695b      	ldr	r3, [r3, #20]
 8000f50:	2b00      	cmp	r3, #0
 8000f52:	d01c      	beq.n	8000f8e <HAL_RCC_OscConfig+0x40e>
        MODIFY_REG(RCC->CSR, RCC_CSR_LSIPREDIV, RCC_OscInitStruct->LSIDiv);
      }
#endif /* RCC_CSR_LSIPREDIV */

      /* Enable the Internal Low Speed oscillator (LSI). */
      __HAL_RCC_LSI_ENABLE();
 8000f54:	4b68      	ldr	r3, [pc, #416]	; (80010f8 <HAL_RCC_OscConfig+0x578>)
 8000f56:	f8d3 3094 	ldr.w	r3, [r3, #148]	; 0x94
 8000f5a:	4a67      	ldr	r2, [pc, #412]	; (80010f8 <HAL_RCC_OscConfig+0x578>)
 8000f5c:	f043 0301 	orr.w	r3, r3, #1
 8000f60:	f8c2 3094 	str.w	r3, [r2, #148]	; 0x94

      /* Get Start Tick*/
      tickstart = HAL_GetTick();
 8000f64:	f7ff fb12 	bl	800058c <HAL_GetTick>
 8000f68:	6138      	str	r0, [r7, #16]

      /* Wait till LSI is ready */
      while(READ_BIT(RCC->CSR, RCC_CSR_LSIRDY) == 0U)
 8000f6a:	e008      	b.n	8000f7e <HAL_RCC_OscConfig+0x3fe>
      {
        if((HAL_GetTick() - tickstart) > LSI_TIMEOUT_VALUE)
 8000f6c:	f7ff fb0e 	bl	800058c <HAL_GetTick>
 8000f70:	4602      	mov	r2, r0
 8000f72:	693b      	ldr	r3, [r7, #16]
 8000f74:	1ad3      	subs	r3, r2, r3
 8000f76:	2b02      	cmp	r3, #2
 8000f78:	d901      	bls.n	8000f7e <HAL_RCC_OscConfig+0x3fe>
        {
          return HAL_TIMEOUT;
 8000f7a:	2303      	movs	r3, #3
 8000f7c:	e21b      	b.n	80013b6 <HAL_RCC_OscConfig+0x836>
      while(READ_BIT(RCC->CSR, RCC_CSR_LSIRDY) == 0U)
 8000f7e:	4b5e      	ldr	r3, [pc, #376]	; (80010f8 <HAL_RCC_OscConfig+0x578>)
 8000f80:	f8d3 3094 	ldr.w	r3, [r3, #148]	; 0x94
 8000f84:	f003 0302 	and.w	r3, r3, #2
 8000f88:	2b00      	cmp	r3, #0
 8000f8a:	d0ef      	beq.n	8000f6c <HAL_RCC_OscConfig+0x3ec>
 8000f8c:	e01b      	b.n	8000fc6 <HAL_RCC_OscConfig+0x446>
      }
    }
    else
    {
      /* Disable the Internal Low Speed oscillator (LSI). */
      __HAL_RCC_LSI_DISABLE();
 8000f8e:	4b5a      	ldr	r3, [pc, #360]	; (80010f8 <HAL_RCC_OscConfig+0x578>)
 8000f90:	f8d3 3094 	ldr.w	r3, [r3, #148]	; 0x94
 8000f94:	4a58      	ldr	r2, [pc, #352]	; (80010f8 <HAL_RCC_OscConfig+0x578>)
 8000f96:	f023 0301 	bic.w	r3, r3, #1
 8000f9a:	f8c2 3094 	str.w	r3, [r2, #148]	; 0x94

      /* Get Start Tick*/
      tickstart = HAL_GetTick();
 8000f9e:	f7ff faf5 	bl	800058c <HAL_GetTick>
 8000fa2:	6138      	str	r0, [r7, #16]

      /* Wait till LSI is disabled */
      while(READ_BIT(RCC->CSR, RCC_CSR_LSIRDY) != 0U)
 8000fa4:	e008      	b.n	8000fb8 <HAL_RCC_OscConfig+0x438>
      {
        if((HAL_GetTick() - tickstart) > LSI_TIMEOUT_VALUE)
 8000fa6:	f7ff faf1 	bl	800058c <HAL_GetTick>
 8000faa:	4602      	mov	r2, r0
 8000fac:	693b      	ldr	r3, [r7, #16]
 8000fae:	1ad3      	subs	r3, r2, r3
 8000fb0:	2b02      	cmp	r3, #2
 8000fb2:	d901      	bls.n	8000fb8 <HAL_RCC_OscConfig+0x438>
        {
          return HAL_TIMEOUT;
 8000fb4:	2303      	movs	r3, #3
 8000fb6:	e1fe      	b.n	80013b6 <HAL_RCC_OscConfig+0x836>
      while(READ_BIT(RCC->CSR, RCC_CSR_LSIRDY) != 0U)
 8000fb8:	4b4f      	ldr	r3, [pc, #316]	; (80010f8 <HAL_RCC_OscConfig+0x578>)
 8000fba:	f8d3 3094 	ldr.w	r3, [r3, #148]	; 0x94
 8000fbe:	f003 0302 	and.w	r3, r3, #2
 8000fc2:	2b00      	cmp	r3, #0
 8000fc4:	d1ef      	bne.n	8000fa6 <HAL_RCC_OscConfig+0x426>
        }
      }
    }
  }
  /*------------------------------ LSE Configuration -------------------------*/
  if(((RCC_OscInitStruct->OscillatorType) & RCC_OSCILLATORTYPE_LSE) == RCC_OSCILLATORTYPE_LSE)
 8000fc6:	687b      	ldr	r3, [r7, #4]
 8000fc8:	681b      	ldr	r3, [r3, #0]
 8000fca:	f003 0304 	and.w	r3, r3, #4
 8000fce:	2b00      	cmp	r3, #0
 8000fd0:	f000 80a6 	beq.w	8001120 <HAL_RCC_OscConfig+0x5a0>
  {
    FlagStatus       pwrclkchanged = RESET;
 8000fd4:	2300      	movs	r3, #0
 8000fd6:	77fb      	strb	r3, [r7, #31]
    /* Check the parameters */
    assert_param(IS_RCC_LSE(RCC_OscInitStruct->LSEState));

    /* Update LSE configuration in Backup Domain control register    */
    /* Requires to enable write access to Backup Domain of necessary */
    if(HAL_IS_BIT_CLR(RCC->APB1ENR1, RCC_APB1ENR1_PWREN))
 8000fd8:	4b47      	ldr	r3, [pc, #284]	; (80010f8 <HAL_RCC_OscConfig+0x578>)
 8000fda:	6d9b      	ldr	r3, [r3, #88]	; 0x58
 8000fdc:	f003 5380 	and.w	r3, r3, #268435456	; 0x10000000
 8000fe0:	2b00      	cmp	r3, #0
 8000fe2:	d10d      	bne.n	8001000 <HAL_RCC_OscConfig+0x480>
    {
      __HAL_RCC_PWR_CLK_ENABLE();
 8000fe4:	4b44      	ldr	r3, [pc, #272]	; (80010f8 <HAL_RCC_OscConfig+0x578>)
 8000fe6:	6d9b      	ldr	r3, [r3, #88]	; 0x58
 8000fe8:	4a43      	ldr	r2, [pc, #268]	; (80010f8 <HAL_RCC_OscConfig+0x578>)
 8000fea:	f043 5380 	orr.w	r3, r3, #268435456	; 0x10000000
 8000fee:	6593      	str	r3, [r2, #88]	; 0x58
 8000ff0:	4b41      	ldr	r3, [pc, #260]	; (80010f8 <HAL_RCC_OscConfig+0x578>)
 8000ff2:	6d9b      	ldr	r3, [r3, #88]	; 0x58
 8000ff4:	f003 5380 	and.w	r3, r3, #268435456	; 0x10000000
 8000ff8:	60bb      	str	r3, [r7, #8]
 8000ffa:	68bb      	ldr	r3, [r7, #8]
      pwrclkchanged = SET;
 8000ffc:	2301      	movs	r3, #1
 8000ffe:	77fb      	strb	r3, [r7, #31]
    }

    if(HAL_IS_BIT_CLR(PWR->CR1, PWR_CR1_DBP))
 8001000:	4b3e      	ldr	r3, [pc, #248]	; (80010fc <HAL_RCC_OscConfig+0x57c>)
 8001002:	681b      	ldr	r3, [r3, #0]
 8001004:	f403 7380 	and.w	r3, r3, #256	; 0x100
 8001008:	2b00      	cmp	r3, #0
 800100a:	d118      	bne.n	800103e <HAL_RCC_OscConfig+0x4be>
    {
      /* Enable write access to Backup domain */
      SET_BIT(PWR->CR1, PWR_CR1_DBP);
 800100c:	4b3b      	ldr	r3, [pc, #236]	; (80010fc <HAL_RCC_OscConfig+0x57c>)
 800100e:	681b      	ldr	r3, [r3, #0]
 8001010:	4a3a      	ldr	r2, [pc, #232]	; (80010fc <HAL_RCC_OscConfig+0x57c>)
 8001012:	f443 7380 	orr.w	r3, r3, #256	; 0x100
 8001016:	6013      	str	r3, [r2, #0]

      /* Wait for Backup domain Write protection disable */
      tickstart = HAL_GetTick();
 8001018:	f7ff fab8 	bl	800058c <HAL_GetTick>
 800101c:	6138      	str	r0, [r7, #16]

      while(HAL_IS_BIT_CLR(PWR->CR1, PWR_CR1_DBP))
 800101e:	e008      	b.n	8001032 <HAL_RCC_OscConfig+0x4b2>
      {
        if((HAL_GetTick() - tickstart) > RCC_DBP_TIMEOUT_VALUE)
 8001020:	f7ff fab4 	bl	800058c <HAL_GetTick>
 8001024:	4602      	mov	r2, r0
 8001026:	693b      	ldr	r3, [r7, #16]
 8001028:	1ad3      	subs	r3, r2, r3
 800102a:	2b02      	cmp	r3, #2
 800102c:	d901      	bls.n	8001032 <HAL_RCC_OscConfig+0x4b2>
        {
          return HAL_TIMEOUT;
 800102e:	2303      	movs	r3, #3
 8001030:	e1c1      	b.n	80013b6 <HAL_RCC_OscConfig+0x836>
      while(HAL_IS_BIT_CLR(PWR->CR1, PWR_CR1_DBP))
 8001032:	4b32      	ldr	r3, [pc, #200]	; (80010fc <HAL_RCC_OscConfig+0x57c>)
 8001034:	681b      	ldr	r3, [r3, #0]
 8001036:	f403 7380 	and.w	r3, r3, #256	; 0x100
 800103a:	2b00      	cmp	r3, #0
 800103c:	d0f0      	beq.n	8001020 <HAL_RCC_OscConfig+0x4a0>
    {
      CLEAR_BIT(RCC->BDCR, RCC_BDCR_LSEON);
      CLEAR_BIT(RCC->BDCR, RCC_BDCR_LSEBYP);
    }
#else
    __HAL_RCC_LSE_CONFIG(RCC_OscInitStruct->LSEState);
 800103e:	687b      	ldr	r3, [r7, #4]
 8001040:	689b      	ldr	r3, [r3, #8]
 8001042:	2b01      	cmp	r3, #1
 8001044:	d108      	bne.n	8001058 <HAL_RCC_OscConfig+0x4d8>
 8001046:	4b2c      	ldr	r3, [pc, #176]	; (80010f8 <HAL_RCC_OscConfig+0x578>)
 8001048:	f8d3 3090 	ldr.w	r3, [r3, #144]	; 0x90
 800104c:	4a2a      	ldr	r2, [pc, #168]	; (80010f8 <HAL_RCC_OscConfig+0x578>)
 800104e:	f043 0301 	orr.w	r3, r3, #1
 8001052:	f8c2 3090 	str.w	r3, [r2, #144]	; 0x90
 8001056:	e024      	b.n	80010a2 <HAL_RCC_OscConfig+0x522>
 8001058:	687b      	ldr	r3, [r7, #4]
 800105a:	689b      	ldr	r3, [r3, #8]
 800105c:	2b05      	cmp	r3, #5
 800105e:	d110      	bne.n	8001082 <HAL_RCC_OscConfig+0x502>
 8001060:	4b25      	ldr	r3, [pc, #148]	; (80010f8 <HAL_RCC_OscConfig+0x578>)
 8001062:	f8d3 3090 	ldr.w	r3, [r3, #144]	; 0x90
 8001066:	4a24      	ldr	r2, [pc, #144]	; (80010f8 <HAL_RCC_OscConfig+0x578>)
 8001068:	f043 0304 	orr.w	r3, r3, #4
 800106c:	f8c2 3090 	str.w	r3, [r2, #144]	; 0x90
 8001070:	4b21      	ldr	r3, [pc, #132]	; (80010f8 <HAL_RCC_OscConfig+0x578>)
 8001072:	f8d3 3090 	ldr.w	r3, [r3, #144]	; 0x90
 8001076:	4a20      	ldr	r2, [pc, #128]	; (80010f8 <HAL_RCC_OscConfig+0x578>)
 8001078:	f043 0301 	orr.w	r3, r3, #1
 800107c:	f8c2 3090 	str.w	r3, [r2, #144]	; 0x90
 8001080:	e00f      	b.n	80010a2 <HAL_RCC_OscConfig+0x522>
 8001082:	4b1d      	ldr	r3, [pc, #116]	; (80010f8 <HAL_RCC_OscConfig+0x578>)
 8001084:	f8d3 3090 	ldr.w	r3, [r3, #144]	; 0x90
 8001088:	4a1b      	ldr	r2, [pc, #108]	; (80010f8 <HAL_RCC_OscConfig+0x578>)
 800108a:	f023 0301 	bic.w	r3, r3, #1
 800108e:	f8c2 3090 	str.w	r3, [r2, #144]	; 0x90
 8001092:	4b19      	ldr	r3, [pc, #100]	; (80010f8 <HAL_RCC_OscConfig+0x578>)
 8001094:	f8d3 3090 	ldr.w	r3, [r3, #144]	; 0x90
 8001098:	4a17      	ldr	r2, [pc, #92]	; (80010f8 <HAL_RCC_OscConfig+0x578>)
 800109a:	f023 0304 	bic.w	r3, r3, #4
 800109e:	f8c2 3090 	str.w	r3, [r2, #144]	; 0x90
#endif /* RCC_BDCR_LSESYSDIS */

    /* Check the LSE State */
    if(RCC_OscInitStruct->LSEState != RCC_LSE_OFF)
 80010a2:	687b      	ldr	r3, [r7, #4]
 80010a4:	689b      	ldr	r3, [r3, #8]
 80010a6:	2b00      	cmp	r3, #0
 80010a8:	d016      	beq.n	80010d8 <HAL_RCC_OscConfig+0x558>
    {
      /* Get Start Tick*/
      tickstart = HAL_GetTick();
 80010aa:	f7ff fa6f 	bl	800058c <HAL_GetTick>
 80010ae:	6138      	str	r0, [r7, #16]

      /* Wait till LSE is ready */
      while(READ_BIT(RCC->BDCR, RCC_BDCR_LSERDY) == 0U)
 80010b0:	e00a      	b.n	80010c8 <HAL_RCC_OscConfig+0x548>
      {
        if((HAL_GetTick() - tickstart) > RCC_LSE_TIMEOUT_VALUE)
 80010b2:	f7ff fa6b 	bl	800058c <HAL_GetTick>
 80010b6:	4602      	mov	r2, r0
 80010b8:	693b      	ldr	r3, [r7, #16]
 80010ba:	1ad3      	subs	r3, r2, r3
 80010bc:	f241 3288 	movw	r2, #5000	; 0x1388
 80010c0:	4293      	cmp	r3, r2
 80010c2:	d901      	bls.n	80010c8 <HAL_RCC_OscConfig+0x548>
        {
          return HAL_TIMEOUT;
 80010c4:	2303      	movs	r3, #3
 80010c6:	e176      	b.n	80013b6 <HAL_RCC_OscConfig+0x836>
      while(READ_BIT(RCC->BDCR, RCC_BDCR_LSERDY) == 0U)
 80010c8:	4b0b      	ldr	r3, [pc, #44]	; (80010f8 <HAL_RCC_OscConfig+0x578>)
 80010ca:	f8d3 3090 	ldr.w	r3, [r3, #144]	; 0x90
 80010ce:	f003 0302 	and.w	r3, r3, #2
 80010d2:	2b00      	cmp	r3, #0
 80010d4:	d0ed      	beq.n	80010b2 <HAL_RCC_OscConfig+0x532>
 80010d6:	e01a      	b.n	800110e <HAL_RCC_OscConfig+0x58e>
      }
    }
    else
    {
      /* Get Start Tick*/
      tickstart = HAL_GetTick();
 80010d8:	f7ff fa58 	bl	800058c <HAL_GetTick>
 80010dc:	6138      	str	r0, [r7, #16]

      /* Wait till LSE is disabled */
      while(READ_BIT(RCC->BDCR, RCC_BDCR_LSERDY) != 0U)
 80010de:	e00f      	b.n	8001100 <HAL_RCC_OscConfig+0x580>
      {
        if((HAL_GetTick() - tickstart) > RCC_LSE_TIMEOUT_VALUE)
 80010e0:	f7ff fa54 	bl	800058c <HAL_GetTick>
 80010e4:	4602      	mov	r2, r0
 80010e6:	693b      	ldr	r3, [r7, #16]
 80010e8:	1ad3      	subs	r3, r2, r3
 80010ea:	f241 3288 	movw	r2, #5000	; 0x1388
 80010ee:	4293      	cmp	r3, r2
 80010f0:	d906      	bls.n	8001100 <HAL_RCC_OscConfig+0x580>
        {
          return HAL_TIMEOUT;
 80010f2:	2303      	movs	r3, #3
 80010f4:	e15f      	b.n	80013b6 <HAL_RCC_OscConfig+0x836>
 80010f6:	bf00      	nop
 80010f8:	40021000 	.word	0x40021000
 80010fc:	40007000 	.word	0x40007000
      while(READ_BIT(RCC->BDCR, RCC_BDCR_LSERDY) != 0U)
 8001100:	4baa      	ldr	r3, [pc, #680]	; (80013ac <HAL_RCC_OscConfig+0x82c>)
 8001102:	f8d3 3090 	ldr.w	r3, [r3, #144]	; 0x90
 8001106:	f003 0302 	and.w	r3, r3, #2
 800110a:	2b00      	cmp	r3, #0
 800110c:	d1e8      	bne.n	80010e0 <HAL_RCC_OscConfig+0x560>
      CLEAR_BIT(RCC->BDCR, RCC_BDCR_LSESYSDIS);
#endif /* RCC_BDCR_LSESYSDIS */
    }

    /* Restore clock configuration if changed */
    if(pwrclkchanged == SET)
 800110e:	7ffb      	ldrb	r3, [r7, #31]
 8001110:	2b01      	cmp	r3, #1
 8001112:	d105      	bne.n	8001120 <HAL_RCC_OscConfig+0x5a0>
    {
      __HAL_RCC_PWR_CLK_DISABLE();
 8001114:	4ba5      	ldr	r3, [pc, #660]	; (80013ac <HAL_RCC_OscConfig+0x82c>)
 8001116:	6d9b      	ldr	r3, [r3, #88]	; 0x58
 8001118:	4aa4      	ldr	r2, [pc, #656]	; (80013ac <HAL_RCC_OscConfig+0x82c>)
 800111a:	f023 5380 	bic.w	r3, r3, #268435456	; 0x10000000
 800111e:	6593      	str	r3, [r2, #88]	; 0x58
    }
  }
#if defined(RCC_HSI48_SUPPORT)
  /*------------------------------ HSI48 Configuration -----------------------*/
  if(((RCC_OscInitStruct->OscillatorType) & RCC_OSCILLATORTYPE_HSI48) == RCC_OSCILLATORTYPE_HSI48)
 8001120:	687b      	ldr	r3, [r7, #4]
 8001122:	681b      	ldr	r3, [r3, #0]
 8001124:	f003 0320 	and.w	r3, r3, #32
 8001128:	2b00      	cmp	r3, #0
 800112a:	d03c      	beq.n	80011a6 <HAL_RCC_OscConfig+0x626>
  {
    /* Check the parameters */
    assert_param(IS_RCC_HSI48(RCC_OscInitStruct->HSI48State));

    /* Check the LSI State */
    if(RCC_OscInitStruct->HSI48State != RCC_HSI48_OFF)
 800112c:	687b      	ldr	r3, [r7, #4]
 800112e:	6a5b      	ldr	r3, [r3, #36]	; 0x24
 8001130:	2b00      	cmp	r3, #0
 8001132:	d01c      	beq.n	800116e <HAL_RCC_OscConfig+0x5ee>
    {
      /* Enable the Internal Low Speed oscillator (HSI48). */
      __HAL_RCC_HSI48_ENABLE();
 8001134:	4b9d      	ldr	r3, [pc, #628]	; (80013ac <HAL_RCC_OscConfig+0x82c>)
 8001136:	f8d3 3098 	ldr.w	r3, [r3, #152]	; 0x98
 800113a:	4a9c      	ldr	r2, [pc, #624]	; (80013ac <HAL_RCC_OscConfig+0x82c>)
 800113c:	f043 0301 	orr.w	r3, r3, #1
 8001140:	f8c2 3098 	str.w	r3, [r2, #152]	; 0x98

      /* Get Start Tick*/
      tickstart = HAL_GetTick();
 8001144:	f7ff fa22 	bl	800058c <HAL_GetTick>
 8001148:	6138      	str	r0, [r7, #16]

      /* Wait till HSI48 is ready */
      while(READ_BIT(RCC->CRRCR, RCC_CRRCR_HSI48RDY) == 0U)
 800114a:	e008      	b.n	800115e <HAL_RCC_OscConfig+0x5de>
      {
        if((HAL_GetTick() - tickstart) > HSI48_TIMEOUT_VALUE)
 800114c:	f7ff fa1e 	bl	800058c <HAL_GetTick>
 8001150:	4602      	mov	r2, r0
 8001152:	693b      	ldr	r3, [r7, #16]
 8001154:	1ad3      	subs	r3, r2, r3
 8001156:	2b02      	cmp	r3, #2
 8001158:	d901      	bls.n	800115e <HAL_RCC_OscConfig+0x5de>
        {
          return HAL_TIMEOUT;
 800115a:	2303      	movs	r3, #3
 800115c:	e12b      	b.n	80013b6 <HAL_RCC_OscConfig+0x836>
      while(READ_BIT(RCC->CRRCR, RCC_CRRCR_HSI48RDY) == 0U)
 800115e:	4b93      	ldr	r3, [pc, #588]	; (80013ac <HAL_RCC_OscConfig+0x82c>)
 8001160:	f8d3 3098 	ldr.w	r3, [r3, #152]	; 0x98
 8001164:	f003 0302 	and.w	r3, r3, #2
 8001168:	2b00      	cmp	r3, #0
 800116a:	d0ef      	beq.n	800114c <HAL_RCC_OscConfig+0x5cc>
 800116c:	e01b      	b.n	80011a6 <HAL_RCC_OscConfig+0x626>
      }
    }
    else
    {
      /* Disable the Internal Low Speed oscillator (HSI48). */
      __HAL_RCC_HSI48_DISABLE();
 800116e:	4b8f      	ldr	r3, [pc, #572]	; (80013ac <HAL_RCC_OscConfig+0x82c>)
 8001170:	f8d3 3098 	ldr.w	r3, [r3, #152]	; 0x98
 8001174:	4a8d      	ldr	r2, [pc, #564]	; (80013ac <HAL_RCC_OscConfig+0x82c>)
 8001176:	f023 0301 	bic.w	r3, r3, #1
 800117a:	f8c2 3098 	str.w	r3, [r2, #152]	; 0x98

      /* Get Start Tick*/
      tickstart = HAL_GetTick();
 800117e:	f7ff fa05 	bl	800058c <HAL_GetTick>
 8001182:	6138      	str	r0, [r7, #16]

      /* Wait till HSI48 is disabled */
      while(READ_BIT(RCC->CRRCR, RCC_CRRCR_HSI48RDY) != 0U)
 8001184:	e008      	b.n	8001198 <HAL_RCC_OscConfig+0x618>
      {
        if((HAL_GetTick() - tickstart) > HSI48_TIMEOUT_VALUE)
 8001186:	f7ff fa01 	bl	800058c <HAL_GetTick>
 800118a:	4602      	mov	r2, r0
 800118c:	693b      	ldr	r3, [r7, #16]
 800118e:	1ad3      	subs	r3, r2, r3
 8001190:	2b02      	cmp	r3, #2
 8001192:	d901      	bls.n	8001198 <HAL_RCC_OscConfig+0x618>
        {
          return HAL_TIMEOUT;
 8001194:	2303      	movs	r3, #3
 8001196:	e10e      	b.n	80013b6 <HAL_RCC_OscConfig+0x836>
      while(READ_BIT(RCC->CRRCR, RCC_CRRCR_HSI48RDY) != 0U)
 8001198:	4b84      	ldr	r3, [pc, #528]	; (80013ac <HAL_RCC_OscConfig+0x82c>)
 800119a:	f8d3 3098 	ldr.w	r3, [r3, #152]	; 0x98
 800119e:	f003 0302 	and.w	r3, r3, #2
 80011a2:	2b00      	cmp	r3, #0
 80011a4:	d1ef      	bne.n	8001186 <HAL_RCC_OscConfig+0x606>
#endif /* RCC_HSI48_SUPPORT */
  /*-------------------------------- PLL Configuration -----------------------*/
  /* Check the parameters */
  assert_param(IS_RCC_PLL(RCC_OscInitStruct->PLL.PLLState));

  if(RCC_OscInitStruct->PLL.PLLState != RCC_PLL_NONE)
 80011a6:	687b      	ldr	r3, [r7, #4]
 80011a8:	6a9b      	ldr	r3, [r3, #40]	; 0x28
 80011aa:	2b00      	cmp	r3, #0
 80011ac:	f000 8102 	beq.w	80013b4 <HAL_RCC_OscConfig+0x834>
  {
    /* PLL On ? */
    if(RCC_OscInitStruct->PLL.PLLState == RCC_PLL_ON)
 80011b0:	687b      	ldr	r3, [r7, #4]
 80011b2:	6a9b      	ldr	r3, [r3, #40]	; 0x28
 80011b4:	2b02      	cmp	r3, #2
 80011b6:	f040 80c5 	bne.w	8001344 <HAL_RCC_OscConfig+0x7c4>
#endif /* RCC_PLLP_SUPPORT */
      assert_param(IS_RCC_PLLQ_VALUE(RCC_OscInitStruct->PLL.PLLQ));
      assert_param(IS_RCC_PLLR_VALUE(RCC_OscInitStruct->PLL.PLLR));

      /* Do nothing if PLL configuration is the unchanged */
      pll_config = RCC->PLLCFGR;
 80011ba:	4b7c      	ldr	r3, [pc, #496]	; (80013ac <HAL_RCC_OscConfig+0x82c>)
 80011bc:	68db      	ldr	r3, [r3, #12]
 80011be:	617b      	str	r3, [r7, #20]
      if((READ_BIT(pll_config, RCC_PLLCFGR_PLLSRC)  != RCC_OscInitStruct->PLL.PLLSource) ||
 80011c0:	697b      	ldr	r3, [r7, #20]
 80011c2:	f003 0203 	and.w	r2, r3, #3
 80011c6:	687b      	ldr	r3, [r7, #4]
 80011c8:	6adb      	ldr	r3, [r3, #44]	; 0x2c
 80011ca:	429a      	cmp	r2, r3
 80011cc:	d12c      	bne.n	8001228 <HAL_RCC_OscConfig+0x6a8>
         (READ_BIT(pll_config, RCC_PLLCFGR_PLLM)    != ((RCC_OscInitStruct->PLL.PLLM - 1U) << RCC_PLLCFGR_PLLM_Pos)) ||
 80011ce:	697b      	ldr	r3, [r7, #20]
 80011d0:	f003 0270 	and.w	r2, r3, #112	; 0x70
 80011d4:	687b      	ldr	r3, [r7, #4]
 80011d6:	6b1b      	ldr	r3, [r3, #48]	; 0x30
 80011d8:	3b01      	subs	r3, #1
 80011da:	011b      	lsls	r3, r3, #4
      if((READ_BIT(pll_config, RCC_PLLCFGR_PLLSRC)  != RCC_OscInitStruct->PLL.PLLSource) ||
 80011dc:	429a      	cmp	r2, r3
 80011de:	d123      	bne.n	8001228 <HAL_RCC_OscConfig+0x6a8>
         (READ_BIT(pll_config, RCC_PLLCFGR_PLLN)    != (RCC_OscInitStruct->PLL.PLLN << RCC_PLLCFGR_PLLN_Pos)) ||
 80011e0:	697b      	ldr	r3, [r7, #20]
 80011e2:	f403 42fe 	and.w	r2, r3, #32512	; 0x7f00
 80011e6:	687b      	ldr	r3, [r7, #4]
 80011e8:	6b5b      	ldr	r3, [r3, #52]	; 0x34
 80011ea:	021b      	lsls	r3, r3, #8
         (READ_BIT(pll_config, RCC_PLLCFGR_PLLM)    != ((RCC_OscInitStruct->PLL.PLLM - 1U) << RCC_PLLCFGR_PLLM_Pos)) ||
 80011ec:	429a      	cmp	r2, r3
 80011ee:	d11b      	bne.n	8001228 <HAL_RCC_OscConfig+0x6a8>
#if defined(RCC_PLLP_SUPPORT)
#if defined(RCC_PLLP_DIV_2_31_SUPPORT)
         (READ_BIT(pll_config, RCC_PLLCFGR_PLLPDIV) != (RCC_OscInitStruct->PLL.PLLP << RCC_PLLCFGR_PLLPDIV_Pos)) ||
 80011f0:	697b      	ldr	r3, [r7, #20]
 80011f2:	f003 4278 	and.w	r2, r3, #4160749568	; 0xf8000000
 80011f6:	687b      	ldr	r3, [r7, #4]
 80011f8:	6b9b      	ldr	r3, [r3, #56]	; 0x38
 80011fa:	06db      	lsls	r3, r3, #27
         (READ_BIT(pll_config, RCC_PLLCFGR_PLLN)    != (RCC_OscInitStruct->PLL.PLLN << RCC_PLLCFGR_PLLN_Pos)) ||
 80011fc:	429a      	cmp	r2, r3
 80011fe:	d113      	bne.n	8001228 <HAL_RCC_OscConfig+0x6a8>
#else
         (READ_BIT(pll_config, RCC_PLLCFGR_PLLP)    != ((RCC_OscInitStruct->PLL.PLLP == RCC_PLLP_DIV7) ? 0U : 1U)) ||
#endif
#endif
         (READ_BIT(pll_config, RCC_PLLCFGR_PLLQ)    != ((((RCC_OscInitStruct->PLL.PLLQ) >> 1U) - 1U) << RCC_PLLCFGR_PLLQ_Pos)) ||
 8001200:	697b      	ldr	r3, [r7, #20]
 8001202:	f403 02c0 	and.w	r2, r3, #6291456	; 0x600000
 8001206:	687b      	ldr	r3, [r7, #4]
 8001208:	6bdb      	ldr	r3, [r3, #60]	; 0x3c
 800120a:	085b      	lsrs	r3, r3, #1
 800120c:	3b01      	subs	r3, #1
 800120e:	055b      	lsls	r3, r3, #21
         (READ_BIT(pll_config, RCC_PLLCFGR_PLLPDIV) != (RCC_OscInitStruct->PLL.PLLP << RCC_PLLCFGR_PLLPDIV_Pos)) ||
 8001210:	429a      	cmp	r2, r3
 8001212:	d109      	bne.n	8001228 <HAL_RCC_OscConfig+0x6a8>
         (READ_BIT(pll_config, RCC_PLLCFGR_PLLR)    != ((((RCC_OscInitStruct->PLL.PLLR) >> 1U) - 1U) << RCC_PLLCFGR_PLLR_Pos)))
 8001214:	697b      	ldr	r3, [r7, #20]
 8001216:	f003 62c0 	and.w	r2, r3, #100663296	; 0x6000000
 800121a:	687b      	ldr	r3, [r7, #4]
 800121c:	6c1b      	ldr	r3, [r3, #64]	; 0x40
 800121e:	085b      	lsrs	r3, r3, #1
 8001220:	3b01      	subs	r3, #1
 8001222:	065b      	lsls	r3, r3, #25
         (READ_BIT(pll_config, RCC_PLLCFGR_PLLQ)    != ((((RCC_OscInitStruct->PLL.PLLQ) >> 1U) - 1U) << RCC_PLLCFGR_PLLQ_Pos)) ||
 8001224:	429a      	cmp	r2, r3
 8001226:	d067      	beq.n	80012f8 <HAL_RCC_OscConfig+0x778>
      {
        /* Check if the PLL is used as system clock or not */
        if(sysclk_source != RCC_CFGR_SWS_PLL)
 8001228:	69bb      	ldr	r3, [r7, #24]
 800122a:	2b0c      	cmp	r3, #12
 800122c:	d062      	beq.n	80012f4 <HAL_RCC_OscConfig+0x774>
        {
#if defined(RCC_PLLSAI1_SUPPORT) || defined(RCC_PLLSAI2_SUPPORT)
          /* Check if main PLL can be updated */
          /* Not possible if the source is shared by other enabled PLLSAIx */
          if((READ_BIT(RCC->CR, RCC_CR_PLLSAI1ON) != 0U)
 800122e:	4b5f      	ldr	r3, [pc, #380]	; (80013ac <HAL_RCC_OscConfig+0x82c>)
 8001230:	681b      	ldr	r3, [r3, #0]
 8001232:	f003 6380 	and.w	r3, r3, #67108864	; 0x4000000
 8001236:	2b00      	cmp	r3, #0
 8001238:	d001      	beq.n	800123e <HAL_RCC_OscConfig+0x6be>
#if defined(RCC_PLLSAI2_SUPPORT)
             || (READ_BIT(RCC->CR, RCC_CR_PLLSAI2ON) != 0U)
#endif
            )
          {
            return HAL_ERROR;
 800123a:	2301      	movs	r3, #1
 800123c:	e0bb      	b.n	80013b6 <HAL_RCC_OscConfig+0x836>
          }
          else
#endif /* RCC_PLLSAI1_SUPPORT || RCC_PLLSAI2_SUPPORT */
          {
            /* Disable the main PLL. */
            __HAL_RCC_PLL_DISABLE();
 800123e:	4b5b      	ldr	r3, [pc, #364]	; (80013ac <HAL_RCC_OscConfig+0x82c>)
 8001240:	681b      	ldr	r3, [r3, #0]
 8001242:	4a5a      	ldr	r2, [pc, #360]	; (80013ac <HAL_RCC_OscConfig+0x82c>)
 8001244:	f023 7380 	bic.w	r3, r3, #16777216	; 0x1000000
 8001248:	6013      	str	r3, [r2, #0]

            /* Get Start Tick*/
            tickstart = HAL_GetTick();
 800124a:	f7ff f99f 	bl	800058c <HAL_GetTick>
 800124e:	6138      	str	r0, [r7, #16]

            /* Wait till PLL is ready */
            while(READ_BIT(RCC->CR, RCC_CR_PLLRDY) != 0U)
 8001250:	e008      	b.n	8001264 <HAL_RCC_OscConfig+0x6e4>
            {
              if((HAL_GetTick() - tickstart) > PLL_TIMEOUT_VALUE)
 8001252:	f7ff f99b 	bl	800058c <HAL_GetTick>
 8001256:	4602      	mov	r2, r0
 8001258:	693b      	ldr	r3, [r7, #16]
 800125a:	1ad3      	subs	r3, r2, r3
 800125c:	2b02      	cmp	r3, #2
 800125e:	d901      	bls.n	8001264 <HAL_RCC_OscConfig+0x6e4>
              {
                return HAL_TIMEOUT;
 8001260:	2303      	movs	r3, #3
 8001262:	e0a8      	b.n	80013b6 <HAL_RCC_OscConfig+0x836>
            while(READ_BIT(RCC->CR, RCC_CR_PLLRDY) != 0U)
 8001264:	4b51      	ldr	r3, [pc, #324]	; (80013ac <HAL_RCC_OscConfig+0x82c>)
 8001266:	681b      	ldr	r3, [r3, #0]
 8001268:	f003 7300 	and.w	r3, r3, #33554432	; 0x2000000
 800126c:	2b00      	cmp	r3, #0
 800126e:	d1f0      	bne.n	8001252 <HAL_RCC_OscConfig+0x6d2>
              }
            }

            /* Configure the main PLL clock source, multiplication and division factors. */
            __HAL_RCC_PLL_CONFIG(RCC_OscInitStruct->PLL.PLLSource,
 8001270:	4b4e      	ldr	r3, [pc, #312]	; (80013ac <HAL_RCC_OscConfig+0x82c>)
 8001272:	68da      	ldr	r2, [r3, #12]
 8001274:	4b4e      	ldr	r3, [pc, #312]	; (80013b0 <HAL_RCC_OscConfig+0x830>)
 8001276:	4013      	ands	r3, r2
 8001278:	687a      	ldr	r2, [r7, #4]
 800127a:	6ad1      	ldr	r1, [r2, #44]	; 0x2c
 800127c:	687a      	ldr	r2, [r7, #4]
 800127e:	6b12      	ldr	r2, [r2, #48]	; 0x30
 8001280:	3a01      	subs	r2, #1
 8001282:	0112      	lsls	r2, r2, #4
 8001284:	4311      	orrs	r1, r2
 8001286:	687a      	ldr	r2, [r7, #4]
 8001288:	6b52      	ldr	r2, [r2, #52]	; 0x34
 800128a:	0212      	lsls	r2, r2, #8
 800128c:	4311      	orrs	r1, r2
 800128e:	687a      	ldr	r2, [r7, #4]
 8001290:	6bd2      	ldr	r2, [r2, #60]	; 0x3c
 8001292:	0852      	lsrs	r2, r2, #1
 8001294:	3a01      	subs	r2, #1
 8001296:	0552      	lsls	r2, r2, #21
 8001298:	4311      	orrs	r1, r2
 800129a:	687a      	ldr	r2, [r7, #4]
 800129c:	6c12      	ldr	r2, [r2, #64]	; 0x40
 800129e:	0852      	lsrs	r2, r2, #1
 80012a0:	3a01      	subs	r2, #1
 80012a2:	0652      	lsls	r2, r2, #25
 80012a4:	4311      	orrs	r1, r2
 80012a6:	687a      	ldr	r2, [r7, #4]
 80012a8:	6b92      	ldr	r2, [r2, #56]	; 0x38
 80012aa:	06d2      	lsls	r2, r2, #27
 80012ac:	430a      	orrs	r2, r1
 80012ae:	493f      	ldr	r1, [pc, #252]	; (80013ac <HAL_RCC_OscConfig+0x82c>)
 80012b0:	4313      	orrs	r3, r2
 80012b2:	60cb      	str	r3, [r1, #12]
#endif
                                 RCC_OscInitStruct->PLL.PLLQ,
                                 RCC_OscInitStruct->PLL.PLLR);

            /* Enable the main PLL. */
            __HAL_RCC_PLL_ENABLE();
 80012b4:	4b3d      	ldr	r3, [pc, #244]	; (80013ac <HAL_RCC_OscConfig+0x82c>)
 80012b6:	681b      	ldr	r3, [r3, #0]
 80012b8:	4a3c      	ldr	r2, [pc, #240]	; (80013ac <HAL_RCC_OscConfig+0x82c>)
 80012ba:	f043 7380 	orr.w	r3, r3, #16777216	; 0x1000000
 80012be:	6013      	str	r3, [r2, #0]

            /* Enable PLL System Clock output. */
            __HAL_RCC_PLLCLKOUT_ENABLE(RCC_PLL_SYSCLK);
 80012c0:	4b3a      	ldr	r3, [pc, #232]	; (80013ac <HAL_RCC_OscConfig+0x82c>)
 80012c2:	68db      	ldr	r3, [r3, #12]
 80012c4:	4a39      	ldr	r2, [pc, #228]	; (80013ac <HAL_RCC_OscConfig+0x82c>)
 80012c6:	f043 7380 	orr.w	r3, r3, #16777216	; 0x1000000
 80012ca:	60d3      	str	r3, [r2, #12]

            /* Get Start Tick*/
            tickstart = HAL_GetTick();
 80012cc:	f7ff f95e 	bl	800058c <HAL_GetTick>
 80012d0:	6138      	str	r0, [r7, #16]

            /* Wait till PLL is ready */
            while(READ_BIT(RCC->CR, RCC_CR_PLLRDY) == 0U)
 80012d2:	e008      	b.n	80012e6 <HAL_RCC_OscConfig+0x766>
            {
              if((HAL_GetTick() - tickstart) > PLL_TIMEOUT_VALUE)
 80012d4:	f7ff f95a 	bl	800058c <HAL_GetTick>
 80012d8:	4602      	mov	r2, r0
 80012da:	693b      	ldr	r3, [r7, #16]
 80012dc:	1ad3      	subs	r3, r2, r3
 80012de:	2b02      	cmp	r3, #2
 80012e0:	d901      	bls.n	80012e6 <HAL_RCC_OscConfig+0x766>
              {
                return HAL_TIMEOUT;
 80012e2:	2303      	movs	r3, #3
 80012e4:	e067      	b.n	80013b6 <HAL_RCC_OscConfig+0x836>
            while(READ_BIT(RCC->CR, RCC_CR_PLLRDY) == 0U)
 80012e6:	4b31      	ldr	r3, [pc, #196]	; (80013ac <HAL_RCC_OscConfig+0x82c>)
 80012e8:	681b      	ldr	r3, [r3, #0]
 80012ea:	f003 7300 	and.w	r3, r3, #33554432	; 0x2000000
 80012ee:	2b00      	cmp	r3, #0
 80012f0:	d0f0      	beq.n	80012d4 <HAL_RCC_OscConfig+0x754>
        if(sysclk_source != RCC_CFGR_SWS_PLL)
 80012f2:	e05f      	b.n	80013b4 <HAL_RCC_OscConfig+0x834>
          }
        }
        else
        {
          /* PLL is already used as System core clock */
          return HAL_ERROR;
 80012f4:	2301      	movs	r3, #1
 80012f6:	e05e      	b.n	80013b6 <HAL_RCC_OscConfig+0x836>
      }
      else
      {
        /* PLL configuration is unchanged */
        /* Re-enable PLL if it was disabled (ie. low power mode) */
        if(READ_BIT(RCC->CR, RCC_CR_PLLRDY) == 0U)
 80012f8:	4b2c      	ldr	r3, [pc, #176]	; (80013ac <HAL_RCC_OscConfig+0x82c>)
 80012fa:	681b      	ldr	r3, [r3, #0]
 80012fc:	f003 7300 	and.w	r3, r3, #33554432	; 0x2000000
 8001300:	2b00      	cmp	r3, #0
 8001302:	d157      	bne.n	80013b4 <HAL_RCC_OscConfig+0x834>
        {
          /* Enable the main PLL. */
          __HAL_RCC_PLL_ENABLE();
 8001304:	4b29      	ldr	r3, [pc, #164]	; (80013ac <HAL_RCC_OscConfig+0x82c>)
 8001306:	681b      	ldr	r3, [r3, #0]
 8001308:	4a28      	ldr	r2, [pc, #160]	; (80013ac <HAL_RCC_OscConfig+0x82c>)
 800130a:	f043 7380 	orr.w	r3, r3, #16777216	; 0x1000000
 800130e:	6013      	str	r3, [r2, #0]

          /* Enable PLL System Clock output. */
          __HAL_RCC_PLLCLKOUT_ENABLE(RCC_PLL_SYSCLK);
 8001310:	4b26      	ldr	r3, [pc, #152]	; (80013ac <HAL_RCC_OscConfig+0x82c>)
 8001312:	68db      	ldr	r3, [r3, #12]
 8001314:	4a25      	ldr	r2, [pc, #148]	; (80013ac <HAL_RCC_OscConfig+0x82c>)
 8001316:	f043 7380 	orr.w	r3, r3, #16777216	; 0x1000000
 800131a:	60d3      	str	r3, [r2, #12]

          /* Get Start Tick*/
          tickstart = HAL_GetTick();
 800131c:	f7ff f936 	bl	800058c <HAL_GetTick>
 8001320:	6138      	str	r0, [r7, #16]

          /* Wait till PLL is ready */
          while(READ_BIT(RCC->CR, RCC_CR_PLLRDY) == 0U)
 8001322:	e008      	b.n	8001336 <HAL_RCC_OscConfig+0x7b6>
          {
            if((HAL_GetTick() - tickstart) > PLL_TIMEOUT_VALUE)
 8001324:	f7ff f932 	bl	800058c <HAL_GetTick>
 8001328:	4602      	mov	r2, r0
 800132a:	693b      	ldr	r3, [r7, #16]
 800132c:	1ad3      	subs	r3, r2, r3
 800132e:	2b02      	cmp	r3, #2
 8001330:	d901      	bls.n	8001336 <HAL_RCC_OscConfig+0x7b6>
            {
              return HAL_TIMEOUT;
 8001332:	2303      	movs	r3, #3
 8001334:	e03f      	b.n	80013b6 <HAL_RCC_OscConfig+0x836>
          while(READ_BIT(RCC->CR, RCC_CR_PLLRDY) == 0U)
 8001336:	4b1d      	ldr	r3, [pc, #116]	; (80013ac <HAL_RCC_OscConfig+0x82c>)
 8001338:	681b      	ldr	r3, [r3, #0]
 800133a:	f003 7300 	and.w	r3, r3, #33554432	; 0x2000000
 800133e:	2b00      	cmp	r3, #0
 8001340:	d0f0      	beq.n	8001324 <HAL_RCC_OscConfig+0x7a4>
 8001342:	e037      	b.n	80013b4 <HAL_RCC_OscConfig+0x834>
      }
    }
    else
    {
      /* Check that PLL is not used as system clock or not */
      if(sysclk_source != RCC_CFGR_SWS_PLL)
 8001344:	69bb      	ldr	r3, [r7, #24]
 8001346:	2b0c      	cmp	r3, #12
 8001348:	d02d      	beq.n	80013a6 <HAL_RCC_OscConfig+0x826>
      {
        /* Disable the main PLL. */
        __HAL_RCC_PLL_DISABLE();
 800134a:	4b18      	ldr	r3, [pc, #96]	; (80013ac <HAL_RCC_OscConfig+0x82c>)
 800134c:	681b      	ldr	r3, [r3, #0]
 800134e:	4a17      	ldr	r2, [pc, #92]	; (80013ac <HAL_RCC_OscConfig+0x82c>)
 8001350:	f023 7380 	bic.w	r3, r3, #16777216	; 0x1000000
 8001354:	6013      	str	r3, [r2, #0]
        if(READ_BIT(RCC->CR, (RCC_CR_PLLSAI1RDY | RCC_CR_PLLSAI2RDY)) == 0U)
        {
          MODIFY_REG(RCC->PLLCFGR, RCC_PLLCFGR_PLLSRC, RCC_PLLSOURCE_NONE);
        }
#elif defined(RCC_PLLSAI1_SUPPORT)
        if(READ_BIT(RCC->CR, RCC_CR_PLLSAI1RDY) == 0U)
 8001356:	4b15      	ldr	r3, [pc, #84]	; (80013ac <HAL_RCC_OscConfig+0x82c>)
 8001358:	681b      	ldr	r3, [r3, #0]
 800135a:	f003 6300 	and.w	r3, r3, #134217728	; 0x8000000
 800135e:	2b00      	cmp	r3, #0
 8001360:	d105      	bne.n	800136e <HAL_RCC_OscConfig+0x7ee>
        {
          MODIFY_REG(RCC->PLLCFGR, RCC_PLLCFGR_PLLSRC, RCC_PLLSOURCE_NONE);
 8001362:	4b12      	ldr	r3, [pc, #72]	; (80013ac <HAL_RCC_OscConfig+0x82c>)
 8001364:	68db      	ldr	r3, [r3, #12]
 8001366:	4a11      	ldr	r2, [pc, #68]	; (80013ac <HAL_RCC_OscConfig+0x82c>)
 8001368:	f023 0303 	bic.w	r3, r3, #3
 800136c:	60d3      	str	r3, [r2, #12]
#endif /* RCC_PLLSAI1_SUPPORT && RCC_CR_PLLSAI2RDY */

#if defined(RCC_PLLSAI2_SUPPORT)
        __HAL_RCC_PLLCLKOUT_DISABLE(RCC_PLL_SYSCLK | RCC_PLL_48M1CLK | RCC_PLL_SAI3CLK);
#elif defined(RCC_PLLSAI1_SUPPORT)
        __HAL_RCC_PLLCLKOUT_DISABLE(RCC_PLL_SYSCLK | RCC_PLL_48M1CLK | RCC_PLL_SAI2CLK);
 800136e:	4b0f      	ldr	r3, [pc, #60]	; (80013ac <HAL_RCC_OscConfig+0x82c>)
 8001370:	68db      	ldr	r3, [r3, #12]
 8001372:	4a0e      	ldr	r2, [pc, #56]	; (80013ac <HAL_RCC_OscConfig+0x82c>)
 8001374:	f023 7388 	bic.w	r3, r3, #17825792	; 0x1100000
 8001378:	f423 3380 	bic.w	r3, r3, #65536	; 0x10000
 800137c:	60d3      	str	r3, [r2, #12]
#else
        __HAL_RCC_PLLCLKOUT_DISABLE(RCC_PLL_SYSCLK | RCC_PLL_48M1CLK);
#endif /* RCC_PLLSAI2_SUPPORT */

        /* Get Start Tick*/
        tickstart = HAL_GetTick();
 800137e:	f7ff f905 	bl	800058c <HAL_GetTick>
 8001382:	6138      	str	r0, [r7, #16]

        /* Wait till PLL is disabled */
        while(READ_BIT(RCC->CR, RCC_CR_PLLRDY) != 0U)
 8001384:	e008      	b.n	8001398 <HAL_RCC_OscConfig+0x818>
        {
          if((HAL_GetTick() - tickstart) > PLL_TIMEOUT_VALUE)
 8001386:	f7ff f901 	bl	800058c <HAL_GetTick>
 800138a:	4602      	mov	r2, r0
 800138c:	693b      	ldr	r3, [r7, #16]
 800138e:	1ad3      	subs	r3, r2, r3
 8001390:	2b02      	cmp	r3, #2
 8001392:	d901      	bls.n	8001398 <HAL_RCC_OscConfig+0x818>
          {
            return HAL_TIMEOUT;
 8001394:	2303      	movs	r3, #3
 8001396:	e00e      	b.n	80013b6 <HAL_RCC_OscConfig+0x836>
        while(READ_BIT(RCC->CR, RCC_CR_PLLRDY) != 0U)
 8001398:	4b04      	ldr	r3, [pc, #16]	; (80013ac <HAL_RCC_OscConfig+0x82c>)
 800139a:	681b      	ldr	r3, [r3, #0]
 800139c:	f003 7300 	and.w	r3, r3, #33554432	; 0x2000000
 80013a0:	2b00      	cmp	r3, #0
 80013a2:	d1f0      	bne.n	8001386 <HAL_RCC_OscConfig+0x806>
 80013a4:	e006      	b.n	80013b4 <HAL_RCC_OscConfig+0x834>
        }
      }
      else
      {
        /* PLL is already used as System core clock */
        return HAL_ERROR;
 80013a6:	2301      	movs	r3, #1
 80013a8:	e005      	b.n	80013b6 <HAL_RCC_OscConfig+0x836>
 80013aa:	bf00      	nop
 80013ac:	40021000 	.word	0x40021000
 80013b0:	019d808c 	.word	0x019d808c
      }
    }
  }
  return HAL_OK;
 80013b4:	2300      	movs	r3, #0
}
 80013b6:	4618      	mov	r0, r3
 80013b8:	3720      	adds	r7, #32
 80013ba:	46bd      	mov	sp, r7
 80013bc:	bd80      	pop	{r7, pc}
 80013be:	bf00      	nop

080013c0 <HAL_RCC_ClockConfig>:
  *         HPRE[3:0] bits to ensure that HCLK not exceed the maximum allowed frequency
  *         (for more details refer to section above "Initialization/de-initialization functions")
  * @retval None
  */
HAL_StatusTypeDef HAL_RCC_ClockConfig(RCC_ClkInitTypeDef  *RCC_ClkInitStruct, uint32_t FLatency)
{
 80013c0:	b580      	push	{r7, lr}
 80013c2:	b084      	sub	sp, #16
 80013c4:	af00      	add	r7, sp, #0
 80013c6:	6078      	str	r0, [r7, #4]
 80013c8:	6039      	str	r1, [r7, #0]
  uint32_t hpre = RCC_SYSCLK_DIV1;
#endif
  HAL_StatusTypeDef status;

  /* Check Null pointer */
  if(RCC_ClkInitStruct == NULL)
 80013ca:	687b      	ldr	r3, [r7, #4]
 80013cc:	2b00      	cmp	r3, #0
 80013ce:	d101      	bne.n	80013d4 <HAL_RCC_ClockConfig+0x14>
  {
    return HAL_ERROR;
 80013d0:	2301      	movs	r3, #1
 80013d2:	e0c8      	b.n	8001566 <HAL_RCC_ClockConfig+0x1a6>
  /* To correctly read data from FLASH memory, the number of wait states (LATENCY)
    must be correctly programmed according to the frequency of the CPU clock
    (HCLK) and the supply voltage of the device. */

  /* Increasing the number of wait states because of higher CPU frequency */
  if(FLatency > __HAL_FLASH_GET_LATENCY())
 80013d4:	4b66      	ldr	r3, [pc, #408]	; (8001570 <HAL_RCC_ClockConfig+0x1b0>)
 80013d6:	681b      	ldr	r3, [r3, #0]
 80013d8:	f003 0307 	and.w	r3, r3, #7
 80013dc:	683a      	ldr	r2, [r7, #0]
 80013de:	429a      	cmp	r2, r3
 80013e0:	d910      	bls.n	8001404 <HAL_RCC_ClockConfig+0x44>
  {
    /* Program the new number of wait states to the LATENCY bits in the FLASH_ACR register */
    __HAL_FLASH_SET_LATENCY(FLatency);
 80013e2:	4b63      	ldr	r3, [pc, #396]	; (8001570 <HAL_RCC_ClockConfig+0x1b0>)
 80013e4:	681b      	ldr	r3, [r3, #0]
 80013e6:	f023 0207 	bic.w	r2, r3, #7
 80013ea:	4961      	ldr	r1, [pc, #388]	; (8001570 <HAL_RCC_ClockConfig+0x1b0>)
 80013ec:	683b      	ldr	r3, [r7, #0]
 80013ee:	4313      	orrs	r3, r2
 80013f0:	600b      	str	r3, [r1, #0]

    /* Check that the new number of wait states is taken into account to access the Flash
    memory by reading the FLASH_ACR register */
    if(__HAL_FLASH_GET_LATENCY() != FLatency)
 80013f2:	4b5f      	ldr	r3, [pc, #380]	; (8001570 <HAL_RCC_ClockConfig+0x1b0>)
 80013f4:	681b      	ldr	r3, [r3, #0]
 80013f6:	f003 0307 	and.w	r3, r3, #7
 80013fa:	683a      	ldr	r2, [r7, #0]
 80013fc:	429a      	cmp	r2, r3
 80013fe:	d001      	beq.n	8001404 <HAL_RCC_ClockConfig+0x44>
    {
      return HAL_ERROR;
 8001400:	2301      	movs	r3, #1
 8001402:	e0b0      	b.n	8001566 <HAL_RCC_ClockConfig+0x1a6>
    }
  }

  /*------------------------- SYSCLK Configuration ---------------------------*/
  if(((RCC_ClkInitStruct->ClockType) & RCC_CLOCKTYPE_SYSCLK) == RCC_CLOCKTYPE_SYSCLK)
 8001404:	687b      	ldr	r3, [r7, #4]
 8001406:	681b      	ldr	r3, [r3, #0]
 8001408:	f003 0301 	and.w	r3, r3, #1
 800140c:	2b00      	cmp	r3, #0
 800140e:	d04c      	beq.n	80014aa <HAL_RCC_ClockConfig+0xea>
  {
    assert_param(IS_RCC_SYSCLKSOURCE(RCC_ClkInitStruct->SYSCLKSource));

    /* PLL is selected as System Clock Source */
    if(RCC_ClkInitStruct->SYSCLKSource == RCC_SYSCLKSOURCE_PLLCLK)
 8001410:	687b      	ldr	r3, [r7, #4]
 8001412:	685b      	ldr	r3, [r3, #4]
 8001414:	2b03      	cmp	r3, #3
 8001416:	d107      	bne.n	8001428 <HAL_RCC_ClockConfig+0x68>
    {
      /* Check the PLL ready flag */
      if(READ_BIT(RCC->CR, RCC_CR_PLLRDY) == 0U)
 8001418:	4b56      	ldr	r3, [pc, #344]	; (8001574 <HAL_RCC_ClockConfig+0x1b4>)
 800141a:	681b      	ldr	r3, [r3, #0]
 800141c:	f003 7300 	and.w	r3, r3, #33554432	; 0x2000000
 8001420:	2b00      	cmp	r3, #0
 8001422:	d121      	bne.n	8001468 <HAL_RCC_ClockConfig+0xa8>
      {
        return HAL_ERROR;
 8001424:	2301      	movs	r3, #1
 8001426:	e09e      	b.n	8001566 <HAL_RCC_ClockConfig+0x1a6>
#endif
    }
    else
    {
      /* HSE is selected as System Clock Source */
      if(RCC_ClkInitStruct->SYSCLKSource == RCC_SYSCLKSOURCE_HSE)
 8001428:	687b      	ldr	r3, [r7, #4]
 800142a:	685b      	ldr	r3, [r3, #4]
 800142c:	2b02      	cmp	r3, #2
 800142e:	d107      	bne.n	8001440 <HAL_RCC_ClockConfig+0x80>
      {
        /* Check the HSE ready flag */
        if(READ_BIT(RCC->CR, RCC_CR_HSERDY) == 0U)
 8001430:	4b50      	ldr	r3, [pc, #320]	; (8001574 <HAL_RCC_ClockConfig+0x1b4>)
 8001432:	681b      	ldr	r3, [r3, #0]
 8001434:	f403 3300 	and.w	r3, r3, #131072	; 0x20000
 8001438:	2b00      	cmp	r3, #0
 800143a:	d115      	bne.n	8001468 <HAL_RCC_ClockConfig+0xa8>
        {
          return HAL_ERROR;
 800143c:	2301      	movs	r3, #1
 800143e:	e092      	b.n	8001566 <HAL_RCC_ClockConfig+0x1a6>
        }
      }
      /* MSI is selected as System Clock Source */
      else if(RCC_ClkInitStruct->SYSCLKSource == RCC_SYSCLKSOURCE_MSI)
 8001440:	687b      	ldr	r3, [r7, #4]
 8001442:	685b      	ldr	r3, [r3, #4]
 8001444:	2b00      	cmp	r3, #0
 8001446:	d107      	bne.n	8001458 <HAL_RCC_ClockConfig+0x98>
      {
        /* Check the MSI ready flag */
        if(READ_BIT(RCC->CR, RCC_CR_MSIRDY) == 0U)
 8001448:	4b4a      	ldr	r3, [pc, #296]	; (8001574 <HAL_RCC_ClockConfig+0x1b4>)
 800144a:	681b      	ldr	r3, [r3, #0]
 800144c:	f003 0302 	and.w	r3, r3, #2
 8001450:	2b00      	cmp	r3, #0
 8001452:	d109      	bne.n	8001468 <HAL_RCC_ClockConfig+0xa8>
        {
          return HAL_ERROR;
 8001454:	2301      	movs	r3, #1
 8001456:	e086      	b.n	8001566 <HAL_RCC_ClockConfig+0x1a6>
      }
      /* HSI is selected as System Clock Source */
      else
      {
        /* Check the HSI ready flag */
        if(READ_BIT(RCC->CR, RCC_CR_HSIRDY) == 0U)
 8001458:	4b46      	ldr	r3, [pc, #280]	; (8001574 <HAL_RCC_ClockConfig+0x1b4>)
 800145a:	681b      	ldr	r3, [r3, #0]
 800145c:	f403 6380 	and.w	r3, r3, #1024	; 0x400
 8001460:	2b00      	cmp	r3, #0
 8001462:	d101      	bne.n	8001468 <HAL_RCC_ClockConfig+0xa8>
        {
          return HAL_ERROR;
 8001464:	2301      	movs	r3, #1
 8001466:	e07e      	b.n	8001566 <HAL_RCC_ClockConfig+0x1a6>
      }
#endif

    }

    MODIFY_REG(RCC->CFGR, RCC_CFGR_SW, RCC_ClkInitStruct->SYSCLKSource);
 8001468:	4b42      	ldr	r3, [pc, #264]	; (8001574 <HAL_RCC_ClockConfig+0x1b4>)
 800146a:	689b      	ldr	r3, [r3, #8]
 800146c:	f023 0203 	bic.w	r2, r3, #3
 8001470:	687b      	ldr	r3, [r7, #4]
 8001472:	685b      	ldr	r3, [r3, #4]
 8001474:	493f      	ldr	r1, [pc, #252]	; (8001574 <HAL_RCC_ClockConfig+0x1b4>)
 8001476:	4313      	orrs	r3, r2
 8001478:	608b      	str	r3, [r1, #8]

    /* Get Start Tick*/
    tickstart = HAL_GetTick();
 800147a:	f7ff f887 	bl	800058c <HAL_GetTick>
 800147e:	60f8      	str	r0, [r7, #12]

    while(__HAL_RCC_GET_SYSCLK_SOURCE() != (RCC_ClkInitStruct->SYSCLKSource << RCC_CFGR_SWS_Pos))
 8001480:	e00a      	b.n	8001498 <HAL_RCC_ClockConfig+0xd8>
    {
      if((HAL_GetTick() - tickstart) > CLOCKSWITCH_TIMEOUT_VALUE)
 8001482:	f7ff f883 	bl	800058c <HAL_GetTick>
 8001486:	4602      	mov	r2, r0
 8001488:	68fb      	ldr	r3, [r7, #12]
 800148a:	1ad3      	subs	r3, r2, r3
 800148c:	f241 3288 	movw	r2, #5000	; 0x1388
 8001490:	4293      	cmp	r3, r2
 8001492:	d901      	bls.n	8001498 <HAL_RCC_ClockConfig+0xd8>
      {
        return HAL_TIMEOUT;
 8001494:	2303      	movs	r3, #3
 8001496:	e066      	b.n	8001566 <HAL_RCC_ClockConfig+0x1a6>
    while(__HAL_RCC_GET_SYSCLK_SOURCE() != (RCC_ClkInitStruct->SYSCLKSource << RCC_CFGR_SWS_Pos))
 8001498:	4b36      	ldr	r3, [pc, #216]	; (8001574 <HAL_RCC_ClockConfig+0x1b4>)
 800149a:	689b      	ldr	r3, [r3, #8]
 800149c:	f003 020c 	and.w	r2, r3, #12
 80014a0:	687b      	ldr	r3, [r7, #4]
 80014a2:	685b      	ldr	r3, [r3, #4]
 80014a4:	009b      	lsls	r3, r3, #2
 80014a6:	429a      	cmp	r2, r3
 80014a8:	d1eb      	bne.n	8001482 <HAL_RCC_ClockConfig+0xc2>
      }
    }
  }

  /*-------------------------- HCLK Configuration --------------------------*/
  if(((RCC_ClkInitStruct->ClockType) & RCC_CLOCKTYPE_HCLK) == RCC_CLOCKTYPE_HCLK)
 80014aa:	687b      	ldr	r3, [r7, #4]
 80014ac:	681b      	ldr	r3, [r3, #0]
 80014ae:	f003 0302 	and.w	r3, r3, #2
 80014b2:	2b00      	cmp	r3, #0
 80014b4:	d008      	beq.n	80014c8 <HAL_RCC_ClockConfig+0x108>
  {
    assert_param(IS_RCC_HCLK(RCC_ClkInitStruct->AHBCLKDivider));
    MODIFY_REG(RCC->CFGR, RCC_CFGR_HPRE, RCC_ClkInitStruct->AHBCLKDivider);
 80014b6:	4b2f      	ldr	r3, [pc, #188]	; (8001574 <HAL_RCC_ClockConfig+0x1b4>)
 80014b8:	689b      	ldr	r3, [r3, #8]
 80014ba:	f023 02f0 	bic.w	r2, r3, #240	; 0xf0
 80014be:	687b      	ldr	r3, [r7, #4]
 80014c0:	689b      	ldr	r3, [r3, #8]
 80014c2:	492c      	ldr	r1, [pc, #176]	; (8001574 <HAL_RCC_ClockConfig+0x1b4>)
 80014c4:	4313      	orrs	r3, r2
 80014c6:	608b      	str	r3, [r1, #8]
    }
  }
#endif

  /* Decreasing the number of wait states because of lower CPU frequency */
  if(FLatency < __HAL_FLASH_GET_LATENCY())
 80014c8:	4b29      	ldr	r3, [pc, #164]	; (8001570 <HAL_RCC_ClockConfig+0x1b0>)
 80014ca:	681b      	ldr	r3, [r3, #0]
 80014cc:	f003 0307 	and.w	r3, r3, #7
 80014d0:	683a      	ldr	r2, [r7, #0]
 80014d2:	429a      	cmp	r2, r3
 80014d4:	d210      	bcs.n	80014f8 <HAL_RCC_ClockConfig+0x138>
  {
    /* Program the new number of wait states to the LATENCY bits in the FLASH_ACR register */
    __HAL_FLASH_SET_LATENCY(FLatency);
 80014d6:	4b26      	ldr	r3, [pc, #152]	; (8001570 <HAL_RCC_ClockConfig+0x1b0>)
 80014d8:	681b      	ldr	r3, [r3, #0]
 80014da:	f023 0207 	bic.w	r2, r3, #7
 80014de:	4924      	ldr	r1, [pc, #144]	; (8001570 <HAL_RCC_ClockConfig+0x1b0>)
 80014e0:	683b      	ldr	r3, [r7, #0]
 80014e2:	4313      	orrs	r3, r2
 80014e4:	600b      	str	r3, [r1, #0]

    /* Check that the new number of wait states is taken into account to access the Flash
    memory by reading the FLASH_ACR register */
    if(__HAL_FLASH_GET_LATENCY() != FLatency)
 80014e6:	4b22      	ldr	r3, [pc, #136]	; (8001570 <HAL_RCC_ClockConfig+0x1b0>)
 80014e8:	681b      	ldr	r3, [r3, #0]
 80014ea:	f003 0307 	and.w	r3, r3, #7
 80014ee:	683a      	ldr	r2, [r7, #0]
 80014f0:	429a      	cmp	r2, r3
 80014f2:	d001      	beq.n	80014f8 <HAL_RCC_ClockConfig+0x138>
    {
      return HAL_ERROR;
 80014f4:	2301      	movs	r3, #1
 80014f6:	e036      	b.n	8001566 <HAL_RCC_ClockConfig+0x1a6>
    }
  }

  /*-------------------------- PCLK1 Configuration ---------------------------*/
  if(((RCC_ClkInitStruct->ClockType) & RCC_CLOCKTYPE_PCLK1) == RCC_CLOCKTYPE_PCLK1)
 80014f8:	687b      	ldr	r3, [r7, #4]
 80014fa:	681b      	ldr	r3, [r3, #0]
 80014fc:	f003 0304 	and.w	r3, r3, #4
 8001500:	2b00      	cmp	r3, #0
 8001502:	d008      	beq.n	8001516 <HAL_RCC_ClockConfig+0x156>
  {
    assert_param(IS_RCC_PCLK(RCC_ClkInitStruct->APB1CLKDivider));
    MODIFY_REG(RCC->CFGR, RCC_CFGR_PPRE1, RCC_ClkInitStruct->APB1CLKDivider);
 8001504:	4b1b      	ldr	r3, [pc, #108]	; (8001574 <HAL_RCC_ClockConfig+0x1b4>)
 8001506:	689b      	ldr	r3, [r3, #8]
 8001508:	f423 62e0 	bic.w	r2, r3, #1792	; 0x700
 800150c:	687b      	ldr	r3, [r7, #4]
 800150e:	68db      	ldr	r3, [r3, #12]
 8001510:	4918      	ldr	r1, [pc, #96]	; (8001574 <HAL_RCC_ClockConfig+0x1b4>)
 8001512:	4313      	orrs	r3, r2
 8001514:	608b      	str	r3, [r1, #8]
  }

  /*-------------------------- PCLK2 Configuration ---------------------------*/
  if(((RCC_ClkInitStruct->ClockType) & RCC_CLOCKTYPE_PCLK2) == RCC_CLOCKTYPE_PCLK2)
 8001516:	687b      	ldr	r3, [r7, #4]
 8001518:	681b      	ldr	r3, [r3, #0]
 800151a:	f003 0308 	and.w	r3, r3, #8
 800151e:	2b00      	cmp	r3, #0
 8001520:	d009      	beq.n	8001536 <HAL_RCC_ClockConfig+0x176>
  {
    assert_param(IS_RCC_PCLK(RCC_ClkInitStruct->APB2CLKDivider));
    MODIFY_REG(RCC->CFGR, RCC_CFGR_PPRE2, ((RCC_ClkInitStruct->APB2CLKDivider) << 3U));
 8001522:	4b14      	ldr	r3, [pc, #80]	; (8001574 <HAL_RCC_ClockConfig+0x1b4>)
 8001524:	689b      	ldr	r3, [r3, #8]
 8001526:	f423 5260 	bic.w	r2, r3, #14336	; 0x3800
 800152a:	687b      	ldr	r3, [r7, #4]
 800152c:	691b      	ldr	r3, [r3, #16]
 800152e:	00db      	lsls	r3, r3, #3
 8001530:	4910      	ldr	r1, [pc, #64]	; (8001574 <HAL_RCC_ClockConfig+0x1b4>)
 8001532:	4313      	orrs	r3, r2
 8001534:	608b      	str	r3, [r1, #8]
  }

  /* Update the SystemCoreClock global variable */
  SystemCoreClock = HAL_RCC_GetSysClockFreq() >> (AHBPrescTable[READ_BIT(RCC->CFGR, RCC_CFGR_HPRE) >> RCC_CFGR_HPRE_Pos] & 0x1FU);
 8001536:	f000 f825 	bl	8001584 <HAL_RCC_GetSysClockFreq>
 800153a:	4601      	mov	r1, r0
 800153c:	4b0d      	ldr	r3, [pc, #52]	; (8001574 <HAL_RCC_ClockConfig+0x1b4>)
 800153e:	689b      	ldr	r3, [r3, #8]
 8001540:	091b      	lsrs	r3, r3, #4
 8001542:	f003 030f 	and.w	r3, r3, #15
 8001546:	4a0c      	ldr	r2, [pc, #48]	; (8001578 <HAL_RCC_ClockConfig+0x1b8>)
 8001548:	5cd3      	ldrb	r3, [r2, r3]
 800154a:	f003 031f 	and.w	r3, r3, #31
 800154e:	fa21 f303 	lsr.w	r3, r1, r3
 8001552:	4a0a      	ldr	r2, [pc, #40]	; (800157c <HAL_RCC_ClockConfig+0x1bc>)
 8001554:	6013      	str	r3, [r2, #0]

  /* Configure the source of time base considering new system clocks settings*/
  status = HAL_InitTick(uwTickPrio);
 8001556:	4b0a      	ldr	r3, [pc, #40]	; (8001580 <HAL_RCC_ClockConfig+0x1c0>)
 8001558:	681b      	ldr	r3, [r3, #0]
 800155a:	4618      	mov	r0, r3
 800155c:	f7fe ffc6 	bl	80004ec <HAL_InitTick>
 8001560:	4603      	mov	r3, r0
 8001562:	72fb      	strb	r3, [r7, #11]

  return status;
 8001564:	7afb      	ldrb	r3, [r7, #11]
}
 8001566:	4618      	mov	r0, r3
 8001568:	3710      	adds	r7, #16
 800156a:	46bd      	mov	sp, r7
 800156c:	bd80      	pop	{r7, pc}
 800156e:	bf00      	nop
 8001570:	40022000 	.word	0x40022000
 8001574:	40021000 	.word	0x40021000
 8001578:	080017c8 	.word	0x080017c8
 800157c:	20000000 	.word	0x20000000
 8001580:	20000004 	.word	0x20000004

08001584 <HAL_RCC_GetSysClockFreq>:
  *
  *
  * @retval SYSCLK frequency
  */
uint32_t HAL_RCC_GetSysClockFreq(void)
{
 8001584:	b480      	push	{r7}
 8001586:	b089      	sub	sp, #36	; 0x24
 8001588:	af00      	add	r7, sp, #0
  uint32_t msirange = 0U, sysclockfreq = 0U;
 800158a:	2300      	movs	r3, #0
 800158c:	61fb      	str	r3, [r7, #28]
 800158e:	2300      	movs	r3, #0
 8001590:	61bb      	str	r3, [r7, #24]
  uint32_t pllvco, pllsource, pllr, pllm;    /* no init needed */
  uint32_t sysclk_source, pll_oscsource;

  sysclk_source = __HAL_RCC_GET_SYSCLK_SOURCE();
 8001592:	4b3d      	ldr	r3, [pc, #244]	; (8001688 <HAL_RCC_GetSysClockFreq+0x104>)
 8001594:	689b      	ldr	r3, [r3, #8]
 8001596:	f003 030c 	and.w	r3, r3, #12
 800159a:	613b      	str	r3, [r7, #16]
  pll_oscsource = __HAL_RCC_GET_PLL_OSCSOURCE();
 800159c:	4b3a      	ldr	r3, [pc, #232]	; (8001688 <HAL_RCC_GetSysClockFreq+0x104>)
 800159e:	68db      	ldr	r3, [r3, #12]
 80015a0:	f003 0303 	and.w	r3, r3, #3
 80015a4:	60fb      	str	r3, [r7, #12]

  if((sysclk_source == RCC_CFGR_SWS_MSI) ||
 80015a6:	693b      	ldr	r3, [r7, #16]
 80015a8:	2b00      	cmp	r3, #0
 80015aa:	d005      	beq.n	80015b8 <HAL_RCC_GetSysClockFreq+0x34>
 80015ac:	693b      	ldr	r3, [r7, #16]
 80015ae:	2b0c      	cmp	r3, #12
 80015b0:	d121      	bne.n	80015f6 <HAL_RCC_GetSysClockFreq+0x72>
     ((sysclk_source == RCC_CFGR_SWS_PLL) && (pll_oscsource == RCC_PLLSOURCE_MSI)))
 80015b2:	68fb      	ldr	r3, [r7, #12]
 80015b4:	2b01      	cmp	r3, #1
 80015b6:	d11e      	bne.n	80015f6 <HAL_RCC_GetSysClockFreq+0x72>
  {
    /* MSI or PLL with MSI source used as system clock source */

    /* Get SYSCLK source */
    if(READ_BIT(RCC->CR, RCC_CR_MSIRGSEL) == 0U)
 80015b8:	4b33      	ldr	r3, [pc, #204]	; (8001688 <HAL_RCC_GetSysClockFreq+0x104>)
 80015ba:	681b      	ldr	r3, [r3, #0]
 80015bc:	f003 0308 	and.w	r3, r3, #8
 80015c0:	2b00      	cmp	r3, #0
 80015c2:	d107      	bne.n	80015d4 <HAL_RCC_GetSysClockFreq+0x50>
    { /* MSISRANGE from RCC_CSR applies */
      msirange = READ_BIT(RCC->CSR, RCC_CSR_MSISRANGE) >> RCC_CSR_MSISRANGE_Pos;
 80015c4:	4b30      	ldr	r3, [pc, #192]	; (8001688 <HAL_RCC_GetSysClockFreq+0x104>)
 80015c6:	f8d3 3094 	ldr.w	r3, [r3, #148]	; 0x94
 80015ca:	0a1b      	lsrs	r3, r3, #8
 80015cc:	f003 030f 	and.w	r3, r3, #15
 80015d0:	61fb      	str	r3, [r7, #28]
 80015d2:	e005      	b.n	80015e0 <HAL_RCC_GetSysClockFreq+0x5c>
    }
    else
    { /* MSIRANGE from RCC_CR applies */
      msirange = READ_BIT(RCC->CR, RCC_CR_MSIRANGE) >> RCC_CR_MSIRANGE_Pos;
 80015d4:	4b2c      	ldr	r3, [pc, #176]	; (8001688 <HAL_RCC_GetSysClockFreq+0x104>)
 80015d6:	681b      	ldr	r3, [r3, #0]
 80015d8:	091b      	lsrs	r3, r3, #4
 80015da:	f003 030f 	and.w	r3, r3, #15
 80015de:	61fb      	str	r3, [r7, #28]
    }
    /*MSI frequency range in HZ*/
    msirange = MSIRangeTable[msirange];
 80015e0:	4a2a      	ldr	r2, [pc, #168]	; (800168c <HAL_RCC_GetSysClockFreq+0x108>)
 80015e2:	69fb      	ldr	r3, [r7, #28]
 80015e4:	f852 3023 	ldr.w	r3, [r2, r3, lsl #2]
 80015e8:	61fb      	str	r3, [r7, #28]

    if(sysclk_source == RCC_CFGR_SWS_MSI)
 80015ea:	693b      	ldr	r3, [r7, #16]
 80015ec:	2b00      	cmp	r3, #0
 80015ee:	d10d      	bne.n	800160c <HAL_RCC_GetSysClockFreq+0x88>
    {
      /* MSI used as system clock source */
      sysclockfreq = msirange;
 80015f0:	69fb      	ldr	r3, [r7, #28]
 80015f2:	61bb      	str	r3, [r7, #24]
    if(sysclk_source == RCC_CFGR_SWS_MSI)
 80015f4:	e00a      	b.n	800160c <HAL_RCC_GetSysClockFreq+0x88>
    }
  }
  else if(sysclk_source == RCC_CFGR_SWS_HSI)
 80015f6:	693b      	ldr	r3, [r7, #16]
 80015f8:	2b04      	cmp	r3, #4
 80015fa:	d102      	bne.n	8001602 <HAL_RCC_GetSysClockFreq+0x7e>
  {
    /* HSI used as system clock source */
    sysclockfreq = HSI_VALUE;
 80015fc:	4b24      	ldr	r3, [pc, #144]	; (8001690 <HAL_RCC_GetSysClockFreq+0x10c>)
 80015fe:	61bb      	str	r3, [r7, #24]
 8001600:	e004      	b.n	800160c <HAL_RCC_GetSysClockFreq+0x88>
  }
  else if(sysclk_source == RCC_CFGR_SWS_HSE)
 8001602:	693b      	ldr	r3, [r7, #16]
 8001604:	2b08      	cmp	r3, #8
 8001606:	d101      	bne.n	800160c <HAL_RCC_GetSysClockFreq+0x88>
  {
    /* HSE used as system clock source */
    sysclockfreq = HSE_VALUE;
 8001608:	4b22      	ldr	r3, [pc, #136]	; (8001694 <HAL_RCC_GetSysClockFreq+0x110>)
 800160a:	61bb      	str	r3, [r7, #24]
  else
  {
    /* unexpected case: sysclockfreq at 0 */
  }

  if(sysclk_source == RCC_CFGR_SWS_PLL)
 800160c:	693b      	ldr	r3, [r7, #16]
 800160e:	2b0c      	cmp	r3, #12
 8001610:	d133      	bne.n	800167a <HAL_RCC_GetSysClockFreq+0xf6>
    /* PLL used as system clock  source */

    /* PLL_VCO = (HSE_VALUE or HSI_VALUE or MSI_VALUE) * PLLN / PLLM
    SYSCLK = PLL_VCO / PLLR
    */
    pllsource = READ_BIT(RCC->PLLCFGR, RCC_PLLCFGR_PLLSRC);
 8001612:	4b1d      	ldr	r3, [pc, #116]	; (8001688 <HAL_RCC_GetSysClockFreq+0x104>)
 8001614:	68db      	ldr	r3, [r3, #12]
 8001616:	f003 0303 	and.w	r3, r3, #3
 800161a:	60bb      	str	r3, [r7, #8]

    switch (pllsource)
 800161c:	68bb      	ldr	r3, [r7, #8]
 800161e:	2b02      	cmp	r3, #2
 8001620:	d002      	beq.n	8001628 <HAL_RCC_GetSysClockFreq+0xa4>
 8001622:	2b03      	cmp	r3, #3
 8001624:	d003      	beq.n	800162e <HAL_RCC_GetSysClockFreq+0xaa>
 8001626:	e005      	b.n	8001634 <HAL_RCC_GetSysClockFreq+0xb0>
    {
    case RCC_PLLSOURCE_HSI:  /* HSI used as PLL clock source */
      pllvco = HSI_VALUE;
 8001628:	4b19      	ldr	r3, [pc, #100]	; (8001690 <HAL_RCC_GetSysClockFreq+0x10c>)
 800162a:	617b      	str	r3, [r7, #20]
      break;
 800162c:	e005      	b.n	800163a <HAL_RCC_GetSysClockFreq+0xb6>

    case RCC_PLLSOURCE_HSE:  /* HSE used as PLL clock source */
      pllvco = HSE_VALUE;
 800162e:	4b19      	ldr	r3, [pc, #100]	; (8001694 <HAL_RCC_GetSysClockFreq+0x110>)
 8001630:	617b      	str	r3, [r7, #20]
      break;
 8001632:	e002      	b.n	800163a <HAL_RCC_GetSysClockFreq+0xb6>

    case RCC_PLLSOURCE_MSI:  /* MSI used as PLL clock source */
    default:
      pllvco = msirange;
 8001634:	69fb      	ldr	r3, [r7, #28]
 8001636:	617b      	str	r3, [r7, #20]
      break;
 8001638:	bf00      	nop
    }
    pllm = (READ_BIT(RCC->PLLCFGR, RCC_PLLCFGR_PLLM) >> RCC_PLLCFGR_PLLM_Pos) + 1U ;
 800163a:	4b13      	ldr	r3, [pc, #76]	; (8001688 <HAL_RCC_GetSysClockFreq+0x104>)
 800163c:	68db      	ldr	r3, [r3, #12]
 800163e:	091b      	lsrs	r3, r3, #4
 8001640:	f003 0307 	and.w	r3, r3, #7
 8001644:	3301      	adds	r3, #1
 8001646:	607b      	str	r3, [r7, #4]
    pllvco = (pllvco * (READ_BIT(RCC->PLLCFGR, RCC_PLLCFGR_PLLN) >> RCC_PLLCFGR_PLLN_Pos)) / pllm;
 8001648:	4b0f      	ldr	r3, [pc, #60]	; (8001688 <HAL_RCC_GetSysClockFreq+0x104>)
 800164a:	68db      	ldr	r3, [r3, #12]
 800164c:	0a1b      	lsrs	r3, r3, #8
 800164e:	f003 037f 	and.w	r3, r3, #127	; 0x7f
 8001652:	697a      	ldr	r2, [r7, #20]
 8001654:	fb02 f203 	mul.w	r2, r2, r3
 8001658:	687b      	ldr	r3, [r7, #4]
 800165a:	fbb2 f3f3 	udiv	r3, r2, r3
 800165e:	617b      	str	r3, [r7, #20]
    pllr = ((READ_BIT(RCC->PLLCFGR, RCC_PLLCFGR_PLLR) >> RCC_PLLCFGR_PLLR_Pos) + 1U ) * 2U;
 8001660:	4b09      	ldr	r3, [pc, #36]	; (8001688 <HAL_RCC_GetSysClockFreq+0x104>)
 8001662:	68db      	ldr	r3, [r3, #12]
 8001664:	0e5b      	lsrs	r3, r3, #25
 8001666:	f003 0303 	and.w	r3, r3, #3
 800166a:	3301      	adds	r3, #1
 800166c:	005b      	lsls	r3, r3, #1
 800166e:	603b      	str	r3, [r7, #0]
    sysclockfreq = pllvco / pllr;
 8001670:	697a      	ldr	r2, [r7, #20]
 8001672:	683b      	ldr	r3, [r7, #0]
 8001674:	fbb2 f3f3 	udiv	r3, r2, r3
 8001678:	61bb      	str	r3, [r7, #24]
  }

  return sysclockfreq;
 800167a:	69bb      	ldr	r3, [r7, #24]
}
 800167c:	4618      	mov	r0, r3
 800167e:	3724      	adds	r7, #36	; 0x24
 8001680:	46bd      	mov	sp, r7
 8001682:	f85d 7b04 	ldr.w	r7, [sp], #4
 8001686:	4770      	bx	lr
 8001688:	40021000 	.word	0x40021000
 800168c:	080017d8 	.word	0x080017d8
 8001690:	00f42400 	.word	0x00f42400
 8001694:	007a1200 	.word	0x007a1200

08001698 <RCC_SetFlashLatencyFromMSIRange>:
            voltage range.
  * @param  msirange  MSI range value from RCC_MSIRANGE_0 to RCC_MSIRANGE_11
  * @retval HAL status
  */
static HAL_StatusTypeDef RCC_SetFlashLatencyFromMSIRange(uint32_t msirange)
{
 8001698:	b580      	push	{r7, lr}
 800169a:	b086      	sub	sp, #24
 800169c:	af00      	add	r7, sp, #0
 800169e:	6078      	str	r0, [r7, #4]
  uint32_t vos;
  uint32_t latency = FLASH_LATENCY_0;  /* default value 0WS */
 80016a0:	2300      	movs	r3, #0
 80016a2:	613b      	str	r3, [r7, #16]

  if(__HAL_RCC_PWR_IS_CLK_ENABLED())
 80016a4:	4b2a      	ldr	r3, [pc, #168]	; (8001750 <RCC_SetFlashLatencyFromMSIRange+0xb8>)
 80016a6:	6d9b      	ldr	r3, [r3, #88]	; 0x58
 80016a8:	f003 5380 	and.w	r3, r3, #268435456	; 0x10000000
 80016ac:	2b00      	cmp	r3, #0
 80016ae:	d003      	beq.n	80016b8 <RCC_SetFlashLatencyFromMSIRange+0x20>
  {
    vos = HAL_PWREx_GetVoltageRange();
 80016b0:	f7ff fa02 	bl	8000ab8 <HAL_PWREx_GetVoltageRange>
 80016b4:	6178      	str	r0, [r7, #20]
 80016b6:	e014      	b.n	80016e2 <RCC_SetFlashLatencyFromMSIRange+0x4a>
  }
  else
  {
    __HAL_RCC_PWR_CLK_ENABLE();
 80016b8:	4b25      	ldr	r3, [pc, #148]	; (8001750 <RCC_SetFlashLatencyFromMSIRange+0xb8>)
 80016ba:	6d9b      	ldr	r3, [r3, #88]	; 0x58
 80016bc:	4a24      	ldr	r2, [pc, #144]	; (8001750 <RCC_SetFlashLatencyFromMSIRange+0xb8>)
 80016be:	f043 5380 	orr.w	r3, r3, #268435456	; 0x10000000
 80016c2:	6593      	str	r3, [r2, #88]	; 0x58
 80016c4:	4b22      	ldr	r3, [pc, #136]	; (8001750 <RCC_SetFlashLatencyFromMSIRange+0xb8>)
 80016c6:	6d9b      	ldr	r3, [r3, #88]	; 0x58
 80016c8:	f003 5380 	and.w	r3, r3, #268435456	; 0x10000000
 80016cc:	60fb      	str	r3, [r7, #12]
 80016ce:	68fb      	ldr	r3, [r7, #12]
    vos = HAL_PWREx_GetVoltageRange();
 80016d0:	f7ff f9f2 	bl	8000ab8 <HAL_PWREx_GetVoltageRange>
 80016d4:	6178      	str	r0, [r7, #20]
    __HAL_RCC_PWR_CLK_DISABLE();
 80016d6:	4b1e      	ldr	r3, [pc, #120]	; (8001750 <RCC_SetFlashLatencyFromMSIRange+0xb8>)
 80016d8:	6d9b      	ldr	r3, [r3, #88]	; 0x58
 80016da:	4a1d      	ldr	r2, [pc, #116]	; (8001750 <RCC_SetFlashLatencyFromMSIRange+0xb8>)
 80016dc:	f023 5380 	bic.w	r3, r3, #268435456	; 0x10000000
 80016e0:	6593      	str	r3, [r2, #88]	; 0x58
  }

  if(vos == PWR_REGULATOR_VOLTAGE_SCALE1)
 80016e2:	697b      	ldr	r3, [r7, #20]
 80016e4:	f5b3 7f00 	cmp.w	r3, #512	; 0x200
 80016e8:	d10b      	bne.n	8001702 <RCC_SetFlashLatencyFromMSIRange+0x6a>
  {
    if(msirange > RCC_MSIRANGE_8)
 80016ea:	687b      	ldr	r3, [r7, #4]
 80016ec:	2b80      	cmp	r3, #128	; 0x80
 80016ee:	d919      	bls.n	8001724 <RCC_SetFlashLatencyFromMSIRange+0x8c>
    {
      /* MSI > 16Mhz */
      if(msirange > RCC_MSIRANGE_10)
 80016f0:	687b      	ldr	r3, [r7, #4]
 80016f2:	2ba0      	cmp	r3, #160	; 0xa0
 80016f4:	d902      	bls.n	80016fc <RCC_SetFlashLatencyFromMSIRange+0x64>
      {
        /* MSI 48Mhz */
        latency = FLASH_LATENCY_2; /* 2WS */
 80016f6:	2302      	movs	r3, #2
 80016f8:	613b      	str	r3, [r7, #16]
 80016fa:	e013      	b.n	8001724 <RCC_SetFlashLatencyFromMSIRange+0x8c>
      }
      else
      {
        /* MSI 24Mhz or 32Mhz */
        latency = FLASH_LATENCY_1; /* 1WS */
 80016fc:	2301      	movs	r3, #1
 80016fe:	613b      	str	r3, [r7, #16]
 8001700:	e010      	b.n	8001724 <RCC_SetFlashLatencyFromMSIRange+0x8c>
        latency = FLASH_LATENCY_1; /* 1WS */
      }
      /* else MSI < 8Mhz default FLASH_LATENCY_0 0WS */
    }
#else
    if(msirange > RCC_MSIRANGE_8)
 8001702:	687b      	ldr	r3, [r7, #4]
 8001704:	2b80      	cmp	r3, #128	; 0x80
 8001706:	d902      	bls.n	800170e <RCC_SetFlashLatencyFromMSIRange+0x76>
    {
      /* MSI > 16Mhz */
      latency = FLASH_LATENCY_3; /* 3WS */
 8001708:	2303      	movs	r3, #3
 800170a:	613b      	str	r3, [r7, #16]
 800170c:	e00a      	b.n	8001724 <RCC_SetFlashLatencyFromMSIRange+0x8c>
    }
    else
    {
      if(msirange == RCC_MSIRANGE_8)
 800170e:	687b      	ldr	r3, [r7, #4]
 8001710:	2b80      	cmp	r3, #128	; 0x80
 8001712:	d102      	bne.n	800171a <RCC_SetFlashLatencyFromMSIRange+0x82>
      {
        /* MSI 16Mhz */
        latency = FLASH_LATENCY_2; /* 2WS */
 8001714:	2302      	movs	r3, #2
 8001716:	613b      	str	r3, [r7, #16]
 8001718:	e004      	b.n	8001724 <RCC_SetFlashLatencyFromMSIRange+0x8c>
      }
      else if(msirange == RCC_MSIRANGE_7)
 800171a:	687b      	ldr	r3, [r7, #4]
 800171c:	2b70      	cmp	r3, #112	; 0x70
 800171e:	d101      	bne.n	8001724 <RCC_SetFlashLatencyFromMSIRange+0x8c>
      {
        /* MSI 8Mhz */
        latency = FLASH_LATENCY_1; /* 1WS */
 8001720:	2301      	movs	r3, #1
 8001722:	613b      	str	r3, [r7, #16]
      /* else MSI < 8Mhz default FLASH_LATENCY_0 0WS */
    }
#endif
  }

  __HAL_FLASH_SET_LATENCY(latency);
 8001724:	4b0b      	ldr	r3, [pc, #44]	; (8001754 <RCC_SetFlashLatencyFromMSIRange+0xbc>)
 8001726:	681b      	ldr	r3, [r3, #0]
 8001728:	f023 0207 	bic.w	r2, r3, #7
 800172c:	4909      	ldr	r1, [pc, #36]	; (8001754 <RCC_SetFlashLatencyFromMSIRange+0xbc>)
 800172e:	693b      	ldr	r3, [r7, #16]
 8001730:	4313      	orrs	r3, r2
 8001732:	600b      	str	r3, [r1, #0]

  /* Check that the new number of wait states is taken into account to access the Flash
     memory by reading the FLASH_ACR register */
  if(__HAL_FLASH_GET_LATENCY() != latency)
 8001734:	4b07      	ldr	r3, [pc, #28]	; (8001754 <RCC_SetFlashLatencyFromMSIRange+0xbc>)
 8001736:	681b      	ldr	r3, [r3, #0]
 8001738:	f003 0307 	and.w	r3, r3, #7
 800173c:	693a      	ldr	r2, [r7, #16]
 800173e:	429a      	cmp	r2, r3
 8001740:	d001      	beq.n	8001746 <RCC_SetFlashLatencyFromMSIRange+0xae>
  {
    return HAL_ERROR;
 8001742:	2301      	movs	r3, #1
 8001744:	e000      	b.n	8001748 <RCC_SetFlashLatencyFromMSIRange+0xb0>
  }

  return HAL_OK;
 8001746:	2300      	movs	r3, #0
}
 8001748:	4618      	mov	r0, r3
 800174a:	3718      	adds	r7, #24
 800174c:	46bd      	mov	sp, r7
 800174e:	bd80      	pop	{r7, pc}
 8001750:	40021000 	.word	0x40021000
 8001754:	40022000 	.word	0x40022000

08001758 <__libc_init_array>:
 8001758:	b570      	push	{r4, r5, r6, lr}
 800175a:	4e0d      	ldr	r6, [pc, #52]	; (8001790 <__libc_init_array+0x38>)
 800175c:	4c0d      	ldr	r4, [pc, #52]	; (8001794 <__libc_init_array+0x3c>)
 800175e:	1ba4      	subs	r4, r4, r6
 8001760:	10a4      	asrs	r4, r4, #2
 8001762:	2500      	movs	r5, #0
 8001764:	42a5      	cmp	r5, r4
 8001766:	d109      	bne.n	800177c <__libc_init_array+0x24>
 8001768:	4e0b      	ldr	r6, [pc, #44]	; (8001798 <__libc_init_array+0x40>)
 800176a:	4c0c      	ldr	r4, [pc, #48]	; (800179c <__libc_init_array+0x44>)
 800176c:	f000 f820 	bl	80017b0 <_init>
 8001770:	1ba4      	subs	r4, r4, r6
 8001772:	10a4      	asrs	r4, r4, #2
 8001774:	2500      	movs	r5, #0
 8001776:	42a5      	cmp	r5, r4
 8001778:	d105      	bne.n	8001786 <__libc_init_array+0x2e>
 800177a:	bd70      	pop	{r4, r5, r6, pc}
 800177c:	f856 3025 	ldr.w	r3, [r6, r5, lsl #2]
 8001780:	4798      	blx	r3
 8001782:	3501      	adds	r5, #1
 8001784:	e7ee      	b.n	8001764 <__libc_init_array+0xc>
 8001786:	f856 3025 	ldr.w	r3, [r6, r5, lsl #2]
 800178a:	4798      	blx	r3
 800178c:	3501      	adds	r5, #1
 800178e:	e7f2      	b.n	8001776 <__libc_init_array+0x1e>
 8001790:	08001808 	.word	0x08001808
 8001794:	08001808 	.word	0x08001808
 8001798:	08001808 	.word	0x08001808
 800179c:	0800180c 	.word	0x0800180c

080017a0 <memset>:
 80017a0:	4402      	add	r2, r0
 80017a2:	4603      	mov	r3, r0
 80017a4:	4293      	cmp	r3, r2
 80017a6:	d100      	bne.n	80017aa <memset+0xa>
 80017a8:	4770      	bx	lr
 80017aa:	f803 1b01 	strb.w	r1, [r3], #1
 80017ae:	e7f9      	b.n	80017a4 <memset+0x4>

080017b0 <_init>:
 80017b0:	b5f8      	push	{r3, r4, r5, r6, r7, lr}
 80017b2:	bf00      	nop
 80017b4:	bcf8      	pop	{r3, r4, r5, r6, r7}
 80017b6:	bc08      	pop	{r3}
 80017b8:	469e      	mov	lr, r3
 80017ba:	4770      	bx	lr

080017bc <_fini>:
 80017bc:	b5f8      	push	{r3, r4, r5, r6, r7, lr}
 80017be:	bf00      	nop
 80017c0:	bcf8      	pop	{r3, r4, r5, r6, r7}
 80017c2:	bc08      	pop	{r3}
 80017c4:	469e      	mov	lr, r3
 80017c6:	4770      	bx	lr
